# file opened: nexus.asm
   1  0000              ; Nexus Test — ZX Spectrum 128K interrogation game
   2  0000              ; sjasmplus compatible; builds .sna and .tap
   3  0000                  DEVICE ZXSPECTRUM128
   4  0000                  ORG #7fff
   5  7FFF 01               DB 1
   6  8000                  ORG #8000
   7  8000                  INCLUDE "const.inc"
# file opened: const.inc
   1+ 8000                  IFNDEF CONST_INC_INCLUDED
   2+ 8000              CONST_INC_INCLUDED EQU 1
   3+ 8000
   4+ 8000              ; Hardware ports
   5+ 8000              PORT_BORDER     EQU #fe
   6+ 8000              PORT_128MEM     EQU #7ffd
   7+ 8000              PORT_AY_REG     EQU #fffd
   8+ 8000              PORT_AY_DAT     EQU #bffd
   9+ 8000
  10+ 8000              ; Screen
  11+ 8000              PIX_BASE        EQU #4000
  12+ 8000              ATTR_BASE       EQU #5800
  13+ 8000
  14+ 8000              ; Game states
  15+ 8000              ST_TITLE        EQU 0
  16+ 8000              ST_LEVEL_INTRO  EQU 1
  17+ 8000              ST_INTERROGATION EQU 2
  18+ 8000              ST_VERDICT      EQU 3
  19+ 8000              ST_RESULT       EQU 4
  20+ 8000              ST_GAMEOVER     EQU 5
  21+ 8000              ST_HISCORE      EQU 6
  22+ 8000
  23+ 8000              ; Ink colours (bits 0-2)
  24+ 8000              INK_BLACK       EQU 0
  25+ 8000              INK_BLUE        EQU 1
  26+ 8000              INK_RED         EQU 2
  27+ 8000              INK_MAG         EQU 3
  28+ 8000              INK_GREEN       EQU 4
  29+ 8000              INK_CYAN        EQU 5
  30+ 8000              INK_YELLOW      EQU 6
  31+ 8000              INK_WHITE       EQU 7
  32+ 8000              BRIGHT          EQU 64
  33+ 8000
  34+ 8000              ; Common attribute combos
  35+ 8000              ATTR_NORMAL     EQU INK_GREEN + (INK_BLACK*8) + BRIGHT
  36+ 8000              ATTR_HIGHLIGHT  EQU INK_BLACK + (INK_GREEN*8) + BRIGHT
  37+ 8000              ATTR_TITLE      EQU INK_CYAN + (INK_BLACK*8) + BRIGHT
  38+ 8000              ATTR_STATUS     EQU INK_YELLOW + (INK_BLACK*8) + BRIGHT
  39+ 8000              ATTR_RESPONSE   EQU INK_CYAN + (INK_BLACK*8) + BRIGHT
  40+ 8000              ATTR_QUERY      EQU INK_WHITE + (INK_BLACK*8) + BRIGHT
  41+ 8000              ATTR_DIVIDER    EQU INK_GREEN + (INK_GREEN*8)
  42+ 8000              ATTR_CONTROLS   EQU INK_WHITE + (INK_BLACK*8)
  43+ 8000              ATTR_SELECTED   EQU INK_YELLOW + (INK_BLACK*8) + BRIGHT
  44+ 8000              ATTR_CORRECT    EQU INK_WHITE + (INK_GREEN*8) + BRIGHT
  45+ 8000              ATTR_WRONG      EQU INK_WHITE + (INK_RED*8) + BRIGHT
  46+ 8000              ATTR_GAUGE_LO   EQU INK_GREEN + (INK_GREEN*8) + BRIGHT
  47+ 8000              ATTR_GAUGE_MID  EQU INK_YELLOW + (INK_YELLOW*8) + BRIGHT
  48+ 8000              ATTR_GAUGE_HI   EQU INK_RED + (INK_RED*8) + BRIGHT
  49+ 8000              ATTR_GAUGE_BG   EQU INK_BLACK + (INK_BLACK*8)
  50+ 8000              ATTR_HISCORE    EQU INK_CYAN + (INK_BLACK*8) + BRIGHT
  51+ 8000              ATTR_HISCORE_HL EQU INK_WHITE + (INK_BLUE*8) + BRIGHT
  52+ 8000              ATTR_PUPIL_BLINK EQU INK_RED + (INK_RED*8) + BRIGHT
  53+ 8000
  54+ 8000              ; Icon IDs (0-15)
  55+ 8000              ICON_MEMORY     EQU 0
  56+ 8000              ICON_FEAR       EQU 1
  57+ 8000              ICON_PAIN       EQU 2
  58+ 8000              ICON_JOY        EQU 3
  59+ 8000              ICON_ANIMAL     EQU 4
  60+ 8000              ICON_CHILD      EQU 5
  61+ 8000              ICON_MOTHER     EQU 6
  62+ 8000              ICON_STRANGER   EQU 7
  63+ 8000              ICON_TIME       EQU 8
  64+ 8000              ICON_DEATH      EQU 9
  65+ 8000              ICON_SELF       EQU 10
  66+ 8000              ICON_TRUTH      EQU 11
  67+ 8000              ICON_REPEAT     EQU 12
  68+ 8000              ICON_DEEPER     EQU 13
  69+ 8000              ICON_STOP       EQU 14
  70+ 8000              ICON_FILE       EQU 15
  71+ 8000              ICON_NONE       EQU #FF
  72+ 8000
  73+ 8000              ; Question classes
  74+ 8000              QCLASS_EMOTIONAL  EQU 0
  75+ 8000              QCLASS_MEMORY     EQU 1
  76+ 8000              QCLASS_CONTRADICT EQU 2
  77+ 8000              QCLASS_CALIBRATE  EQU 3
  78+ 8000
  79+ 8000              ; Key codes returned by read_game_key
  80+ 8000              KEY_NONE        EQU 0
  81+ 8000              KEY_UP          EQU 1
  82+ 8000              KEY_DOWN        EQU 2
  83+ 8000              KEY_LEFT        EQU 3
  84+ 8000              KEY_RIGHT       EQU 4
  85+ 8000              KEY_SELECT      EQU 5
  86+ 8000              KEY_ENTER       EQU 6
  87+ 8000              KEY_HUMAN       EQU 7
  88+ 8000              KEY_ANDROID     EQU 8
  89+ 8000              KEY_CLEAR       EQU 9
  90+ 8000
  91+ 8000              ; Subject struct offsets
  92+ 8000              SUBJ_TYPE       EQU 0
  93+ 8000              SUBJ_EMPATHY    EQU 1
  94+ 8000              SUBJ_AGGRESSION EQU 2
  95+ 8000              SUBJ_STABILITY  EQU 3
  96+ 8000              SUBJ_DECEPTION  EQU 4
  97+ 8000              SUBJ_DIFFICULTY EQU 5
  98+ 8000              SUBJ_PORTRAIT   EQU 6
  99+ 8000              SUBJ_NAME       EQU 8
 100+ 8000              SUBJ_SIZE       EQU 10
 101+ 8000
 102+ 8000              ; Subject types
 103+ 8000              TYPE_HUMAN      EQU 0
 104+ 8000              TYPE_ANDROID    EQU 1
 105+ 8000
 106+ 8000              ; Layout constants
 107+ 8000              GRID_TOP_ROW    EQU 16
 108+ 8000              PORTRAIT_COL    EQU 0
 109+ 8000              PORTRAIT_ROW    EQU 2
 110+ 8000              PORTRAIT_W      EQU 8
 111+ 8000              PORTRAIT_H      EQU 12
 112+ 8000              RESPONSE_COL    EQU 9
 113+ 8000              RESPONSE_ROW    EQU 3
 114+ 8000              RESPONSE_W      EQU 23
 115+ 8000              RESPONSE_H      EQU 6
 116+ 8000              QUERY_ROW       EQU 15
 117+ 8000              STATUS_ROW      EQU 0
 118+ 8000              MAX_QUERY_ICONS EQU 3
 119+ 8000              NUM_LEVELS      EQU 5
 120+ 8000              BASE_SCORE      EQU 100
 121+ 8000              INTRO_DELAY     EQU 75
 122+ 8000
 123+ 8000              ; Voight-Kampff gauge layout
 124+ 8000              GAUGE_LABEL_COL EQU 9
 125+ 8000              GAUGE_BAR_COL   EQU 15
 126+ 8000              GAUGE_BAR_W     EQU 17
 127+ 8000              PUPIL_ROW       EQU 10
 128+ 8000              FLUSH_ROW       EQU 11
 129+ 8000              PATTERN_ROW     EQU 12
 130+ 8000              QWEIGHT_ROW     EQU 13
 131+ 8000
 132+ 8000              ; Pattern labels
 133+ 8000              PAT_STABLE      EQU 0
 134+ 8000              PAT_SHIFTING    EQU 1
 135+ 8000              PAT_ERRATIC     EQU 2
 136+ 8000
 137+ 8000              ; Q-weight levels
 138+ 8000              QW_LOW          EQU 0
 139+ 8000              QW_MED          EQU 1
 140+ 8000              QW_HIGH         EQU 2
 141+ 8000
 142+ 8000              ; High score
 143+ 8000              HISCORE_ENTRIES EQU 10
 144+ 8000              HISCORE_ENTRY_SZ EQU 5
 145+ 8000
 146+ 8000              ; Attract mode timing (frames at 50fps)
 147+ 8000              ATTRACT_DELAY   EQU 500
 148+ 8000
 149+ 8000              ; Bank numbers for paging (bits 0-2 of #7FFD value, with bit 4 set for 48K ROM)
 150+ 8000              BANK_0_48ROM    EQU #10
 151+ 8000              BANK_1_48ROM    EQU #11
 152+ 8000              BANK_3_48ROM    EQU #13
 153+ 8000              BANK_4_48ROM    EQU #14
 154+ 8000
 155+ 8000                  ENDIF
 156+ 8000
# file closed: const.inc
   8  8000
   9  8000              Entry:
  10  8000 F3               di
  11  8001 31 F8 FF         ld sp, #fff8
  12  8004 CD 35 84         call ay_mute
  13  8007 CD 5F 80         call verify_paging
  14  800A CD 57 80         call video_home_128
  15  800D CD 58 C4         call title_init
  16  8010 AF               xor a
  17  8011 32 CB EA         ld (game_state), a
  18  8014
  19  8014              MainLoop:
  20  8014 CD B8 80         call wait_frame
  21  8017
  22  8017 3A CB EA         ld a, (game_state)
  23  801A B7               or a
  24  801B CA 39 80         jp z, .ml_title
  25  801E FE 01            cp ST_LEVEL_INTRO
  26  8020 CA 3E 80         jp z, .ml_intro
  27  8023 FE 02            cp ST_INTERROGATION
  28  8025 CA 43 80         jp z, .ml_interrog
  29  8028 FE 03            cp ST_VERDICT
  30  802A CA 48 80         jp z, .ml_verdict
  31  802D FE 05            cp ST_GAMEOVER
  32  802F CA 4D 80         jp z, .ml_gameover
  33  8032 FE 06            cp ST_HISCORE
  34  8034 CA 52 80         jp z, .ml_hiscore
  35  8037 18 DB            jr MainLoop
  36  8039
  37  8039              .ml_title:
  38  8039 CD 66 C4         call title_frame
  39  803C 18 D6            jr MainLoop
  40  803E              .ml_intro:
  41  803E CD FD DF         call level_intro_frame
  42  8041 18 D1            jr MainLoop
  43  8043              .ml_interrog:
  44  8043 CD B3 E0         call interrogation_frame
  45  8046 18 CC            jr MainLoop
  46  8048              .ml_verdict:
  47  8048 CD 25 E6         call verdict_frame
  48  804B 18 C7            jr MainLoop
  49  804D              .ml_gameover:
  50  804D CD 57 E7         call gameover_frame
  51  8050 18 C2            jr MainLoop
  52  8052              .ml_hiscore:
  53  8052 CD DD E7         call hiscore_frame
  54  8055 18 BD            jr MainLoop
  55  8057
  56  8057                  ; ---- Source modules ----
  57  8057                  INCLUDE "zx_sys.asm"
# file opened: zx_sys.asm
   1+ 8057              ; System init, 128K paging proof, screen clear
   2+ 8057              ; const.inc included by nexus.asm
   3+ 8057
   4+ 8057              ; Visible display must use bank-5 attrs at #5800, not shadow at #C000 (#7FFD bit 3)
   5+ 8057              ; bit 4 = 1 → 48K ROM (has font at #3D00); bit 3 = 0 → normal screen; bits 0-2 = bank 0
   6+ 8057              video_home_128:
   7+ 8057 01 FD 7F         ld bc, PORT_128MEM
   8+ 805A 3E 10            ld a, #10
   9+ 805C ED 79            out (c), a
  10+ 805E C9               ret
  11+ 805F
  12+ 805F              ; --- Paging proof: #C000 bank 0 vs bank 1 ---
  13+ 805F              verify_paging:
  14+ 805F 01 FD 7F         ld bc, #7ffd
  15+ 8062 3E 00            ld a, 0
  16+ 8064 ED 79            out (c), a
  17+ 8066 21 00 C0         ld hl, #c000
  18+ 8069 36 A5            ld (hl), #a5
  19+ 806B 3E 01            ld a, 1
  20+ 806D ED 79            out (c), a
  21+ 806F 36 5A            ld (hl), #5a
  22+ 8071 3E 00            ld a, 0
  23+ 8073 ED 79            out (c), a
  24+ 8075 7E               ld a, (hl)
  25+ 8076 FE A5            cp #a5
  26+ 8078 20 13            jr nz, vp_fail
  27+ 807A 3E 01            ld a, 1
  28+ 807C ED 79            out (c), a
  29+ 807E 7E               ld a, (hl)
  30+ 807F FE 5A            cp #5a
  31+ 8081 20 0A            jr nz, vp_fail
  32+ 8083 3E 00            ld a, 0
  33+ 8085 ED 79            out (c), a
  34+ 8087 3E 01            ld a, 1
  35+ 8089 32 CA EA         ld (paging_ok), a
  36+ 808C C9               ret
  37+ 808D              vp_fail:
  38+ 808D AF               xor a
  39+ 808E 32 CA EA         ld (paging_ok), a
  40+ 8091 3E 00            ld a, 0
  41+ 8093 ED 79            out (c), a
  42+ 8095 C9               ret
  43+ 8096
  44+ 8096              ; A = attribute byte — fill 32x24, clear bitmap
  45+ 8096              clear_screen_attrs:
  46+ 8096 21 00 58         ld hl, ATTR_BASE
  47+ 8099 0E 18            ld c, 24
  48+ 809B              cs_row:
  49+ 809B 06 20            ld b, 32
  50+ 809D E5               push hl
  51+ 809E              cs_col:
  52+ 809E 77               ld (hl), a
  53+ 809F 23               inc hl
  54+ 80A0 10 FC            djnz cs_col
  55+ 80A2 E1               pop hl
  56+ 80A3 11 20 00         ld de, 32
  57+ 80A6 19               add hl, de
  58+ 80A7 0D               dec c
  59+ 80A8 20 F1            jr nz, cs_row
  60+ 80AA 21 00 40         ld hl, PIX_BASE
  61+ 80AD 11 01 40         ld de, PIX_BASE+1
  62+ 80B0 01 FF 17         ld bc, 6143
  63+ 80B3 36 00            ld (hl), 0
  64+ 80B5 ED B0            ldir
  65+ 80B7 C9               ret
  66+ 80B8
  67+ 80B8              ; ~69888 T @ 3.5MHz (~50 Hz) — inner loop ~16T per dec
  68+ 80B8              wait_frame:
  69+ 80B8 1E 1C            ld e, 28
  70+ 80BA              .wf_y:
  71+ 80BA 16 9D            ld d, 157
  72+ 80BC              .wf_x:
  73+ 80BC 15               dec d
  74+ 80BD 20 FD            jr nz, .wf_x
  75+ 80BF 1D               dec e
  76+ 80C0 20 F8            jr nz, .wf_y
  77+ 80C2 C9               ret
  78+ 80C3
# file closed: zx_sys.asm
  58  80C3                  INCLUDE "draw.asm"
# file opened: draw.asm
   1+ 80C3              ; draw.asm — Direct screen output for Nexus
   2+ 80C3              ; Writes ROM font (8x8) directly to screen RAM. No plot routine needed.
   3+ 80C3              ;
   4+ 80C3              ; Screen address for char cell at column B (0-31), row D (0-23):
   5+ 80C3              ;   H = #40 | (D & #18)         ... selects third + base
   6+ 80C3              ;   L = ((D & 7) << 5) | B      ... selects char row within third + column
   7+ 80C3              ; Pixel rows within cell: consecutive values of H (just inc H).
   8+ 80C3
   9+ 80C3 00           pr_col: db 0
  10+ 80C4 00           pr_row: db 0
  11+ 80C5
  12+ 80C5              ; --- Print single character at (pr_col, pr_row) ---
  13+ 80C5              ; C = ASCII 32-127. Does NOT advance cursor. Preserves BC, DE, HL.
  14+ 80C5              print_char:
  15+ 80C5 79               ld a, c
  16+ 80C6 D6 20            sub 32
  17+ 80C8 D8               ret c
  18+ 80C9 FE 60            cp 96
  19+ 80CB D0               ret nc
  20+ 80CC
  21+ 80CC C5               push bc
  22+ 80CD D5               push de
  23+ 80CE E5               push hl
  24+ 80CF
  25+ 80CF                  ; Font data = #3D00 + (char-32)*8
  26+ 80CF 6F               ld l, a
  27+ 80D0 26 00            ld h, 0
  28+ 80D2 29               add hl, hl
  29+ 80D3 29               add hl, hl
  30+ 80D4 29               add hl, hl
  31+ 80D5 11 00 3D         ld de, #3D00
  32+ 80D8 19               add hl, de
  33+ 80D9
  34+ 80D9                  ; Screen H byte
  35+ 80D9 3A C4 80         ld a, (pr_row)
  36+ 80DC E6 18            and #18
  37+ 80DE F6 40            or #40
  38+ 80E0 47               ld b, a
  39+ 80E1
  40+ 80E1                  ; Screen L byte
  41+ 80E1 3A C4 80         ld a, (pr_row)
  42+ 80E4 E6 07            and 7
  43+ 80E6 07               rlca
  44+ 80E7 07               rlca
  45+ 80E8 07               rlca
  46+ 80E9 07               rlca
  47+ 80EA 07               rlca
  48+ 80EB 4F               ld c, a
  49+ 80EC 3A C3 80         ld a, (pr_col)
  50+ 80EF B1               or c
  51+ 80F0 5F               ld e, a
  52+ 80F1 50               ld d, b
  53+ 80F2
  54+ 80F2                  ; Write 8 font bytes; inc D moves to next pixel row (+256)
  55+ 80F2 06 08            ld b, 8
  56+ 80F4              .pc_lp:
  57+ 80F4 7E               ld a, (hl)
  58+ 80F5 12               ld (de), a
  59+ 80F6 23               inc hl
  60+ 80F7 14               inc d
  61+ 80F8 10 FA            djnz .pc_lp
  62+ 80FA
  63+ 80FA E1               pop hl
  64+ 80FB D1               pop de
  65+ 80FC C1               pop bc
  66+ 80FD C9               ret
  67+ 80FE
  68+ 80FE              ; --- Print ASCIZ string. Advances cursor. ---
  69+ 80FE              ; HL = string pointer.
  70+ 80FE              print_str:
  71+ 80FE 7E               ld a, (hl)
  72+ 80FF B7               or a
  73+ 8100 C8               ret z
  74+ 8101 E5               push hl
  75+ 8102 4F               ld c, a
  76+ 8103 CD C5 80         call print_char
  77+ 8106 E1               pop hl
  78+ 8107 23               inc hl
  79+ 8108 3A C3 80         ld a, (pr_col)
  80+ 810B 3C               inc a
  81+ 810C 32 C3 80         ld (pr_col), a
  82+ 810F FE 20            cp 32
  83+ 8111 38 EB            jr c, print_str
  84+ 8113 AF               xor a
  85+ 8114 32 C3 80         ld (pr_col), a
  86+ 8117 3A C4 80         ld a, (pr_row)
  87+ 811A 3C               inc a
  88+ 811B 32 C4 80         ld (pr_row), a
  89+ 811E 18 DE            jr print_str
  90+ 8120
  91+ 8120              ; --- Print number 0-99. Advances cursor. ---
  92+ 8120              ; A = value.
  93+ 8120              print_num:
  94+ 8120 FE 0A            cp 10
  95+ 8122 38 16            jr c, .pn_lt10
  96+ 8124 06 00            ld b, 0
  97+ 8126              .pn_div:
  98+ 8126 04               inc b
  99+ 8127 D6 0A            sub 10
 100+ 8129 FE 0A            cp 10
 101+ 812B 30 F9            jr nc, .pn_div
 102+ 812D F5               push af
 103+ 812E 78               ld a, b
 104+ 812F C6 30            add a, '0'
 105+ 8131 4F               ld c, a
 106+ 8132 CD C5 80         call print_char
 107+ 8135 21 C3 80         ld hl, pr_col
 108+ 8138 34               inc (hl)
 109+ 8139 F1               pop af
 110+ 813A              .pn_lt10:
 111+ 813A C6 30            add a, '0'
 112+ 813C 4F               ld c, a
 113+ 813D CD C5 80         call print_char
 114+ 8140 21 C3 80         ld hl, pr_col
 115+ 8143 34               inc (hl)
 116+ 8144 C9               ret
 117+ 8145
 118+ 8145              ; --- Print 16-bit number 0-999. HL = value. Advances cursor. ---
 119+ 8145              print_num16:
 120+ 8145                  ; Hundreds
 121+ 8145 7D               ld a, l
 122+ 8146 44               ld b, h
 123+ 8147 11 00 00         ld de, 0            ; DE = working copy as we only do 0-500
 124+ 814A                  ; Convert HL to decimal: simple repeated subtraction
 125+ 814A E5               push hl
 126+ 814B 06 00            ld b, 0             ; hundreds digit
 127+ 814D              .pn16_h:
 128+ 814D 7C               ld a, h
 129+ 814E B7               or a
 130+ 814F 20 05            jr nz, .pn16_h_sub
 131+ 8151 7D               ld a, l
 132+ 8152 FE 64            cp 100
 133+ 8154 38 0B            jr c, .pn16_h_done
 134+ 8156              .pn16_h_sub:
 135+ 8156 7D               ld a, l
 136+ 8157 D6 64            sub 100
 137+ 8159 6F               ld l, a
 138+ 815A 7C               ld a, h
 139+ 815B DE 00            sbc a, 0
 140+ 815D 67               ld h, a
 141+ 815E 04               inc b
 142+ 815F 18 EC            jr .pn16_h
 143+ 8161              .pn16_h_done:
 144+ 8161 78               ld a, b
 145+ 8162 B7               or a
 146+ 8163 28 0C            jr z, .pn16_tens
 147+ 8165 C6 30            add a, '0'
 148+ 8167 4F               ld c, a
 149+ 8168 E5               push hl
 150+ 8169 CD C5 80         call print_char
 151+ 816C 21 C3 80         ld hl, pr_col
 152+ 816F 34               inc (hl)
 153+ 8170 E1               pop hl
 154+ 8171              .pn16_tens:
 155+ 8171 7D               ld a, l
 156+ 8172 CD 20 81         call print_num
 157+ 8175 E1               pop hl
 158+ 8176 C9               ret
 159+ 8177
 160+ 8177              ; --- Set attributes for a row range ---
 161+ 8177              ; D = row (0-23), B = start col (0-31), E = count, A = attr value.
 162+ 8177              set_row_attrs:
 163+ 8177 4F               ld c, a
 164+ 8178 D5               push de
 165+ 8179 7A               ld a, d
 166+ 817A 26 00            ld h, 0
 167+ 817C 6F               ld l, a
 168+ 817D 29               add hl, hl
 169+ 817E 29               add hl, hl
 170+ 817F 29               add hl, hl
 171+ 8180 29               add hl, hl
 172+ 8181 29               add hl, hl
 173+ 8182 16 00            ld d, 0
 174+ 8184 58               ld e, b
 175+ 8185 19               add hl, de
 176+ 8186 11 00 58         ld de, ATTR_BASE
 177+ 8189 19               add hl, de
 178+ 818A D1               pop de
 179+ 818B 43               ld b, e
 180+ 818C 78               ld a, b
 181+ 818D B7               or a
 182+ 818E C8               ret z
 183+ 818F 79               ld a, c
 184+ 8190              .sra_lp:
 185+ 8190 77               ld (hl), a
 186+ 8191 23               inc hl
 187+ 8192 10 FC            djnz .sra_lp
 188+ 8194 C9               ret
 189+ 8195
 190+ 8195              ; --- Clear a rectangular text area (print spaces) ---
 191+ 8195              ; D = start row, B = start col, E = width, C = height (rows)
 192+ 8195              clear_text_rect:
 193+ 8195 78               ld a, b
 194+ 8196 32 C3 80         ld (pr_col), a
 195+ 8199 7A               ld a, d
 196+ 819A 32 C4 80         ld (pr_row), a
 197+ 819D              .ctr_row:
 198+ 819D 79               ld a, c
 199+ 819E B7               or a
 200+ 819F C8               ret z
 201+ 81A0 C5               push bc
 202+ 81A1 D5               push de
 203+ 81A2 43               ld b, e             ; width counter
 204+ 81A3              .ctr_col:
 205+ 81A3 C5               push bc
 206+ 81A4 0E 20            ld c, ' '
 207+ 81A6 CD C5 80         call print_char
 208+ 81A9 C1               pop bc
 209+ 81AA 21 C3 80         ld hl, pr_col
 210+ 81AD 34               inc (hl)
 211+ 81AE 10 F3            djnz .ctr_col
 212+ 81B0 D1               pop de
 213+ 81B1 C1               pop bc
 214+ 81B2                  ; Next row
 215+ 81B2 0D               dec c
 216+ 81B3 14               inc d
 217+ 81B4 7A               ld a, d
 218+ 81B5 32 C4 80         ld (pr_row), a
 219+ 81B8 3A C3 80         ld a, (pr_col)
 220+ 81BB 93               sub e               ; rewind to start col
 221+ 81BC 32 C3 80         ld (pr_col), a
 222+ 81BF 18 DC            jr .ctr_row
 223+ 81C1
 224+ 81C1              ; --- Copy 6912-byte SCR data to screen memory ---
 225+ 81C1              ; HL = pointer to SCR data (6144 pixel bytes + 768 attr bytes)
 226+ 81C1              copy_scr_to_screen:
 227+ 81C1 11 00 40         ld de, PIX_BASE
 228+ 81C4 01 00 1B         ld bc, 6912
 229+ 81C7 ED B0            ldir
 230+ 81C9 C9               ret
 231+ 81CA
 232+ 81CA              ; --- Print string within a bounded box (word-wraps at word boundaries) ---
 233+ 81CA              ; HL = ASCIZ string. Box starts at current (pr_col, pr_row).
 234+ 81CA              ; Wraps at column (pr_col + box_width). box_width must be set first.
 235+ 81CA              ; Words that exceed a full line are broken mid-word as a fallback.
 236+ 81CA 00           box_left:  db 0
 237+ 81CB 17           box_width: db 23
 238+ 81CC
 239+ 81CC              print_str_box:
 240+ 81CC 3A C3 80         ld a, (pr_col)
 241+ 81CF 32 CA 81         ld (box_left), a
 242+ 81D2
 243+ 81D2              .psb_next:
 244+ 81D2                  ; Skip spaces at start of a new line (after a wrap)
 245+ 81D2 3A C3 80         ld a, (pr_col)
 246+ 81D5 47               ld b, a
 247+ 81D6 3A CA 81         ld a, (box_left)
 248+ 81D9 B8               cp b
 249+ 81DA 20 08            jr nz, .psb_word     ; not at line start, don't skip
 250+ 81DC              .psb_skip_sp:
 251+ 81DC 7E               ld a, (hl)
 252+ 81DD FE 20            cp ' '
 253+ 81DF 20 03            jr nz, .psb_word
 254+ 81E1 23               inc hl                ; eat leading space after wrap
 255+ 81E2 18 F8            jr .psb_skip_sp
 256+ 81E4
 257+ 81E4              .psb_word:
 258+ 81E4 7E               ld a, (hl)
 259+ 81E5 B7               or a
 260+ 81E6 C8               ret z                 ; end of string
 261+ 81E7
 262+ 81E7 FE 20            cp ' '
 263+ 81E9 28 3B            jr z, .psb_space
 264+ 81EB
 265+ 81EB                  ; Non-space character: measure the upcoming word
 266+ 81EB E5               push hl
 267+ 81EC 06 00            ld b, 0               ; word length counter
 268+ 81EE              .psb_meas:
 269+ 81EE 7E               ld a, (hl)
 270+ 81EF B7               or a
 271+ 81F0 28 08            jr z, .psb_meas_done
 272+ 81F2 FE 20            cp ' '
 273+ 81F4 28 04            jr z, .psb_meas_done
 274+ 81F6 04               inc b
 275+ 81F7 23               inc hl
 276+ 81F8 18 F4            jr .psb_meas
 277+ 81FA              .psb_meas_done:
 278+ 81FA E1               pop hl
 279+ 81FB                  ; B = word length. Check if it fits on the current line.
 280+ 81FB 3A CA 81         ld a, (box_left)
 281+ 81FE 4F               ld c, a
 282+ 81FF 3A CB 81         ld a, (box_width)
 283+ 8202 81               add a, c              ; A = right edge column
 284+ 8203 4F               ld c, a
 285+ 8204 3A C3 80         ld a, (pr_col)
 286+ 8207 57               ld d, a
 287+ 8208 79               ld a, c
 288+ 8209 92               sub d                 ; A = remaining columns on this line
 289+ 820A B8               cp b
 290+ 820B 30 2D            jr nc, .psb_print     ; word fits, go print it
 291+ 820D
 292+ 820D                  ; Word doesn't fit — but if we're already at line start,
 293+ 820D                  ; print anyway (word is wider than box, break mid-word)
 294+ 820D 3A C3 80         ld a, (pr_col)
 295+ 8210 4F               ld c, a
 296+ 8211 3A CA 81         ld a, (box_left)
 297+ 8214 B9               cp c
 298+ 8215 28 23            jr z, .psb_print      ; at line start, must print
 299+ 8217
 300+ 8217                  ; Wrap to next line before printing the word
 301+ 8217 3A CA 81         ld a, (box_left)
 302+ 821A 32 C3 80         ld (pr_col), a
 303+ 821D 3A C4 80         ld a, (pr_row)
 304+ 8220 3C               inc a
 305+ 8221 32 C4 80         ld (pr_row), a
 306+ 8224 18 BE            jr .psb_word           ; re-check from new line
 307+ 8226
 308+ 8226              .psb_space:
 309+ 8226                  ; Print the space character
 310+ 8226 E5               push hl
 311+ 8227 0E 20            ld c, ' '
 312+ 8229 CD C5 80         call print_char
 313+ 822C E1               pop hl
 314+ 822D 23               inc hl
 315+ 822E 3A C3 80         ld a, (pr_col)
 316+ 8231 3C               inc a
 317+ 8232 32 C3 80         ld (pr_col), a
 318+ 8235                  ; Check if we hit the right edge after the space
 319+ 8235 CD 54 82         call psb_check_edge
 320+ 8238 18 98            jr .psb_next
 321+ 823A
 322+ 823A              .psb_print:
 323+ 823A                  ; Print characters of the word one by one
 324+ 823A 7E               ld a, (hl)
 325+ 823B B7               or a
 326+ 823C C8               ret z
 327+ 823D FE 20            cp ' '
 328+ 823F 28 91            jr z, .psb_next       ; word ended, back to main loop
 329+ 8241 E5               push hl
 330+ 8242 4F               ld c, a
 331+ 8243 CD C5 80         call print_char
 332+ 8246 E1               pop hl
 333+ 8247 23               inc hl
 334+ 8248 3A C3 80         ld a, (pr_col)
 335+ 824B 3C               inc a
 336+ 824C 32 C3 80         ld (pr_col), a
 337+ 824F                  ; Check right edge (for mid-word break of oversized words)
 338+ 824F CD 54 82         call psb_check_edge
 339+ 8252 18 E6            jr .psb_print
 340+ 8254
 341+ 8254              ; Helper: if pr_col has reached the right edge, wrap to next line
 342+ 8254              psb_check_edge:
 343+ 8254 3A CA 81         ld a, (box_left)
 344+ 8257 47               ld b, a
 345+ 8258 3A CB 81         ld a, (box_width)
 346+ 825B 80               add a, b              ; A = right edge
 347+ 825C 47               ld b, a
 348+ 825D 3A C3 80         ld a, (pr_col)
 349+ 8260 B8               cp b
 350+ 8261 D8               ret c                 ; not at edge yet
 351+ 8262                  ; At or past edge: wrap
 352+ 8262 3A CA 81         ld a, (box_left)
 353+ 8265 32 C3 80         ld (pr_col), a
 354+ 8268 3A C4 80         ld a, (pr_row)
 355+ 826B 3C               inc a
 356+ 826C 32 C4 80         ld (pr_row), a
 357+ 826F C9               ret
 358+ 8270
# file closed: draw.asm
  59  8270                  INCLUDE "input.asm"
# file opened: input.asm
   1+ 8270              ; input.asm — Keyboard reading with debounce
   2+ 8270
   3+ 8270 00           kr_qwert:   db 0
   4+ 8271 00           kr_asdfg:   db 0
   5+ 8272 00           kr_poiuy:   db 0
   6+ 8273 00           kr_entlkjh: db 0
   7+ 8274 00           kr_spsymnb: db 0
   8+ 8275 00           kr_09876:   db 0
   9+ 8276
  10+ 8276              ; Returns A = KEY_xxx constant (0 = no new key). Debounced.
  11+ 8276              read_game_key:
  12+ 8276 3E FB            ld a, #fb
  13+ 8278 DB FE            in a, (#fe)
  14+ 827A 32 70 82         ld (kr_qwert), a
  15+ 827D 3E FD            ld a, #fd
  16+ 827F DB FE            in a, (#fe)
  17+ 8281 32 71 82         ld (kr_asdfg), a
  18+ 8284 3E DF            ld a, #df
  19+ 8286 DB FE            in a, (#fe)
  20+ 8288 32 72 82         ld (kr_poiuy), a
  21+ 828B 3E BF            ld a, #bf
  22+ 828D DB FE            in a, (#fe)
  23+ 828F 32 73 82         ld (kr_entlkjh), a
  24+ 8292 3E 7F            ld a, #7f
  25+ 8294 DB FE            in a, (#fe)
  26+ 8296 32 74 82         ld (kr_spsymnb), a
  27+ 8299 3E EF            ld a, #ef
  28+ 829B DB FE            in a, (#fe)
  29+ 829D 32 75 82         ld (kr_09876), a
  30+ 82A0
  31+ 82A0 3A 70 82         ld a, (kr_qwert)
  32+ 82A3 CB 47            bit 0, a
  33+ 82A5 3E 01            ld a, KEY_UP
  34+ 82A7 CA FF 82         jp z, .rgk_debounce
  35+ 82AA
  36+ 82AA 3A 71 82         ld a, (kr_asdfg)
  37+ 82AD CB 47            bit 0, a
  38+ 82AF 3E 02            ld a, KEY_DOWN
  39+ 82B1 CA FF 82         jp z, .rgk_debounce
  40+ 82B4
  41+ 82B4 3A 72 82         ld a, (kr_poiuy)
  42+ 82B7 CB 4F            bit 1, a
  43+ 82B9 3E 03            ld a, KEY_LEFT
  44+ 82BB CA FF 82         jp z, .rgk_debounce
  45+ 82BE
  46+ 82BE 3A 72 82         ld a, (kr_poiuy)
  47+ 82C1 CB 47            bit 0, a
  48+ 82C3 3E 04            ld a, KEY_RIGHT
  49+ 82C5 CA FF 82         jp z, .rgk_debounce
  50+ 82C8
  51+ 82C8 3A 74 82         ld a, (kr_spsymnb)
  52+ 82CB CB 47            bit 0, a
  53+ 82CD 3E 05            ld a, KEY_SELECT
  54+ 82CF CA FF 82         jp z, .rgk_debounce
  55+ 82D2
  56+ 82D2 3A 73 82         ld a, (kr_entlkjh)
  57+ 82D5 CB 47            bit 0, a
  58+ 82D7 3E 06            ld a, KEY_ENTER
  59+ 82D9 CA FF 82         jp z, .rgk_debounce
  60+ 82DC
  61+ 82DC 3A 73 82         ld a, (kr_entlkjh)
  62+ 82DF CB 67            bit 4, a
  63+ 82E1 3E 07            ld a, KEY_HUMAN
  64+ 82E3 CA FF 82         jp z, .rgk_debounce
  65+ 82E6
  66+ 82E6 3A 70 82         ld a, (kr_qwert)
  67+ 82E9 CB 5F            bit 3, a
  68+ 82EB 3E 08            ld a, KEY_ANDROID
  69+ 82ED CA FF 82         jp z, .rgk_debounce
  70+ 82F0
  71+ 82F0 3A 75 82         ld a, (kr_09876)
  72+ 82F3 CB 47            bit 0, a
  73+ 82F5 3E 09            ld a, KEY_CLEAR
  74+ 82F7 CA FF 82         jp z, .rgk_debounce
  75+ 82FA
  76+ 82FA AF               xor a
  77+ 82FB 32 CD EA         ld (key_held), a
  78+ 82FE C9               ret
  79+ 82FF
  80+ 82FF              .rgk_debounce:
  81+ 82FF 47               ld b, a
  82+ 8300 3A CD EA         ld a, (key_held)
  83+ 8303 B8               cp b
  84+ 8304 78               ld a, b
  85+ 8305 28 04            jr z, .rgk_same
  86+ 8307 32 CD EA         ld (key_held), a
  87+ 830A C9               ret
  88+ 830B              .rgk_same:
  89+ 830B AF               xor a
  90+ 830C C9               ret
  91+ 830D
  92+ 830D              ; A != 0 if any key down (for title/result screens)
  93+ 830D              read_any_key:
  94+ 830D 21 23 83         ld hl, .rak_rows
  95+ 8310 1E 08            ld e, 8
  96+ 8312              .rak_lp:
  97+ 8312 7E               ld a, (hl)
  98+ 8313 23               inc hl
  99+ 8314 DB FE            in a, (#fe)
 100+ 8316 2F               cpl
 101+ 8317 E6 1F            and #1f
 102+ 8319 20 05            jr nz, .rak_hit
 103+ 831B 1D               dec e
 104+ 831C 20 F4            jr nz, .rak_lp
 105+ 831E AF               xor a
 106+ 831F C9               ret
 107+ 8320              .rak_hit:
 108+ 8320 3E 01            ld a, 1
 109+ 8322 C9               ret
 110+ 8323
 111+ 8323              .rak_rows:
 112+ 8323 FE FD FB F7      DB #fe,#fd,#fb,#f7,#ef,#df,#bf,#7f
 112+ 8327 EF DF BF 7F
 113+ 832B
 114+ 832B              ; Scan keyboard for a letter A-Z, ENTER, or DELETE (0 key).
 115+ 832B              ; Returns A = ASCII 'A'-'Z', or 1 = ENTER, 2 = DELETE, 0 = no new key.
 116+ 832B              ; Debounced via letter_held.
 117+ 832B              scan_letter:
 118+ 832B                  ; Row #FB: Q W E R T (bits 0-4)
 119+ 832B 3E FB            ld a, #fb
 120+ 832D DB FE            in a, (#fe)
 121+ 832F 47               ld b, a
 122+ 8330 CB 40            bit 0, b
 123+ 8332 3E 51            ld a, 'Q'
 124+ 8334 CA 17 84         jp z, .slet_got
 125+ 8337 CB 48            bit 1, b
 126+ 8339 3E 57            ld a, 'W'
 127+ 833B CA 17 84         jp z, .slet_got
 128+ 833E CB 50            bit 2, b
 129+ 8340 3E 45            ld a, 'E'
 130+ 8342 CA 17 84         jp z, .slet_got
 131+ 8345 CB 58            bit 3, b
 132+ 8347 3E 52            ld a, 'R'
 133+ 8349 CA 17 84         jp z, .slet_got
 134+ 834C CB 60            bit 4, b
 135+ 834E 3E 54            ld a, 'T'
 136+ 8350 CA 17 84         jp z, .slet_got
 137+ 8353
 138+ 8353                  ; Row #FD: A S D F G
 139+ 8353 3E FD            ld a, #fd
 140+ 8355 DB FE            in a, (#fe)
 141+ 8357 47               ld b, a
 142+ 8358 CB 40            bit 0, b
 143+ 835A 3E 41            ld a, 'A'
 144+ 835C CA 17 84         jp z, .slet_got
 145+ 835F CB 48            bit 1, b
 146+ 8361 3E 53            ld a, 'S'
 147+ 8363 CA 17 84         jp z, .slet_got
 148+ 8366 CB 50            bit 2, b
 149+ 8368 3E 44            ld a, 'D'
 150+ 836A CA 17 84         jp z, .slet_got
 151+ 836D CB 58            bit 3, b
 152+ 836F 3E 46            ld a, 'F'
 153+ 8371 CA 17 84         jp z, .slet_got
 154+ 8374 CB 60            bit 4, b
 155+ 8376 3E 47            ld a, 'G'
 156+ 8378 CA 17 84         jp z, .slet_got
 157+ 837B
 158+ 837B                  ; Row #DF: P O I U Y
 159+ 837B 3E DF            ld a, #df
 160+ 837D DB FE            in a, (#fe)
 161+ 837F 47               ld b, a
 162+ 8380 CB 40            bit 0, b
 163+ 8382 3E 50            ld a, 'P'
 164+ 8384 CA 17 84         jp z, .slet_got
 165+ 8387 CB 48            bit 1, b
 166+ 8389 3E 4F            ld a, 'O'
 167+ 838B CA 17 84         jp z, .slet_got
 168+ 838E CB 50            bit 2, b
 169+ 8390 3E 49            ld a, 'I'
 170+ 8392 CA 17 84         jp z, .slet_got
 171+ 8395 CB 58            bit 3, b
 172+ 8397 3E 55            ld a, 'U'
 173+ 8399 CA 17 84         jp z, .slet_got
 174+ 839C CB 60            bit 4, b
 175+ 839E 3E 59            ld a, 'Y'
 176+ 83A0 CA 17 84         jp z, .slet_got
 177+ 83A3
 178+ 83A3                  ; Row #BF: ENTER L K J H
 179+ 83A3 3E BF            ld a, #bf
 180+ 83A5 DB FE            in a, (#fe)
 181+ 83A7 47               ld b, a
 182+ 83A8 CB 40            bit 0, b
 183+ 83AA 3E 01            ld a, 1             ; ENTER code
 184+ 83AC CA 17 84         jp z, .slet_got
 185+ 83AF CB 48            bit 1, b
 186+ 83B1 3E 4C            ld a, 'L'
 187+ 83B3 CA 17 84         jp z, .slet_got
 188+ 83B6 CB 50            bit 2, b
 189+ 83B8 3E 4B            ld a, 'K'
 190+ 83BA CA 17 84         jp z, .slet_got
 191+ 83BD CB 58            bit 3, b
 192+ 83BF 3E 4A            ld a, 'J'
 193+ 83C1 CA 17 84         jp z, .slet_got
 194+ 83C4 CB 60            bit 4, b
 195+ 83C6 3E 48            ld a, 'H'
 196+ 83C8 CA 17 84         jp z, .slet_got
 197+ 83CB
 198+ 83CB                  ; Row #7F: SPACE SYM M N B
 199+ 83CB 3E 7F            ld a, #7f
 200+ 83CD DB FE            in a, (#fe)
 201+ 83CF 47               ld b, a
 202+ 83D0 CB 50            bit 2, b
 203+ 83D2 3E 4D            ld a, 'M'
 204+ 83D4 CA 17 84         jp z, .slet_got
 205+ 83D7 CB 58            bit 3, b
 206+ 83D9 3E 4E            ld a, 'N'
 207+ 83DB CA 17 84         jp z, .slet_got
 208+ 83DE CB 60            bit 4, b
 209+ 83E0 3E 42            ld a, 'B'
 210+ 83E2 CA 17 84         jp z, .slet_got
 211+ 83E5
 212+ 83E5                  ; Row #FE: SHIFT Z X C V
 213+ 83E5 3E FE            ld a, #fe
 214+ 83E7 DB FE            in a, (#fe)
 215+ 83E9 47               ld b, a
 216+ 83EA CB 48            bit 1, b
 217+ 83EC 3E 5A            ld a, 'Z'
 218+ 83EE CA 17 84         jp z, .slet_got
 219+ 83F1 CB 50            bit 2, b
 220+ 83F3 3E 58            ld a, 'X'
 221+ 83F5 CA 17 84         jp z, .slet_got
 222+ 83F8 CB 58            bit 3, b
 223+ 83FA 3E 43            ld a, 'C'
 224+ 83FC CA 17 84         jp z, .slet_got
 225+ 83FF CB 60            bit 4, b
 226+ 8401 3E 56            ld a, 'V'
 227+ 8403 CA 17 84         jp z, .slet_got
 228+ 8406
 229+ 8406                  ; Row #EF: 0 key = DELETE
 230+ 8406 3E EF            ld a, #ef
 231+ 8408 DB FE            in a, (#fe)
 232+ 840A 47               ld b, a
 233+ 840B CB 40            bit 0, b
 234+ 840D 3E 02            ld a, 2             ; DELETE code
 235+ 840F CA 17 84         jp z, .slet_got
 236+ 8412
 237+ 8412                  ; No key pressed
 238+ 8412 AF               xor a
 239+ 8413 32 25 84         ld (letter_held), a
 240+ 8416 C9               ret
 241+ 8417
 242+ 8417              .slet_got:
 243+ 8417 47               ld b, a
 244+ 8418 3A 25 84         ld a, (letter_held)
 245+ 841B B8               cp b
 246+ 841C 78               ld a, b
 247+ 841D 28 04            jr z, .slet_same
 248+ 841F 32 25 84         ld (letter_held), a
 249+ 8422 C9               ret
 250+ 8423              .slet_same:
 251+ 8423 AF               xor a
 252+ 8424 C9               ret
 253+ 8425
 254+ 8425 00           letter_held: db 0
 255+ 8426
# file closed: input.asm
  60  8426                  INCLUDE "ay_music.asm"
# file opened: ay_music.asm
   1+ 8426              ; ay_music.asm — 3-channel AY-3-8912 driver
   2+ 8426              ; Title: bass stabs (A), pad (B), noise drums (C)
   3+ 8426              ; In-game: 4-beat decaying bass (A), B/C for SFX
   4+ 8426              ; AY clock 1773400 Hz; period = 1773400/(16*freq)
   5+ 8426
   6+ 8426              ; ---- Register write ----
   7+ 8426              ; D = register 0-15, A = value
   8+ 8426              ay_out:
   9+ 8426 C5               push bc
  10+ 8427 F5               push af
  11+ 8428 06 FF            ld b, #ff
  12+ 842A 0E FD            ld c, #fd
  13+ 842C ED 51            out (c), d
  14+ 842E F1               pop af
  15+ 842F 06 BF            ld b, #bf
  16+ 8431 ED 79            out (c), a
  17+ 8433 C1               pop bc
  18+ 8434 C9               ret
  19+ 8435
  20+ 8435              ay_mute:
  21+ 8435 AF               xor a
  22+ 8436 16 00            ld d, 0
  23+ 8438 06 0E            ld b, 14
  24+ 843A              .am_lp:
  25+ 843A CD 26 84         call ay_out
  26+ 843D 14               inc d
  27+ 843E 10 FA            djnz .am_lp
  28+ 8440 16 07            ld d, 7
  29+ 8442 3E FF            ld a, #ff
  30+ 8444 CD 26 84         call ay_out
  31+ 8447 C9               ret
  32+ 8448
  33+ 8448              ; ---- Music mode: 0=off, 1=title, 2=ambient ----
  34+ 8448 00           music_mode:   db 0
  35+ 8449 00           music_frame:  db 0
  36+ 844A
  37+ 844A              ; Bass sequencer (channel A)
  38+ 844A 00           bass_timer:   db 0
  39+ 844B 00           bass_step:    db 0
  40+ 844C
  41+ 844C              ; Pad sequencer (channel B)
  42+ 844C 00           pad_timer:    db 0
  43+ 844D 00           pad_step:     db 0
  44+ 844E
  45+ 844E              ; Drum sequencer (channel C + noise)
  46+ 844E 00           drum_timer:   db 0
  47+ 844F 00           drum_step:    db 0
  48+ 8450
  49+ 8450              ; SFX state
  50+ 8450 00           sfx_id:       db 0
  51+ 8451 00           sfx_timer:    db 0
  52+ 8452
  53+ 8452              ; SFX constants
  54+ 8452              SFX_NONE      EQU 0
  55+ 8452              SFX_CLICK     EQU 1
  56+ 8452              SFX_CHIRP     EQU 2
  57+ 8452              SFX_ASK       EQU 3
  58+ 8452              SFX_CORRECT   EQU 4
  59+ 8452              SFX_WRONG     EQU 5
  60+ 8452
  61+ 8452              ; ---- Title music init ----
  62+ 8452              ay_init_title:
  63+ 8452 CD 35 84         call ay_mute
  64+ 8455 16 07            ld d, 7
  65+ 8457 3E 24            ld a, %00100100
  66+ 8459 CD 26 84         call ay_out
  67+ 845C 3E 01            ld a, 1
  68+ 845E 32 48 84         ld (music_mode), a
  69+ 8461 AF               xor a
  70+ 8462 32 49 84         ld (music_frame), a
  71+ 8465 32 4B 84         ld (bass_step), a
  72+ 8468 32 4D 84         ld (pad_step), a
  73+ 846B 32 4F 84         ld (drum_step), a
  74+ 846E 3E 01            ld a, 1
  75+ 8470 32 4A 84         ld (bass_timer), a
  76+ 8473 32 4C 84         ld (pad_timer), a
  77+ 8476 32 4E 84         ld (drum_timer), a
  78+ 8479 16 00            ld d, 0
  79+ 847B 3E A0            ld a, #a0
  80+ 847D CD 26 84         call ay_out
  81+ 8480 16 01            ld d, 1
  82+ 8482 3E 06            ld a, #06
  83+ 8484 CD 26 84         call ay_out
  84+ 8487 16 02            ld d, 2
  85+ 8489 3E 50            ld a, #50
  86+ 848B CD 26 84         call ay_out
  87+ 848E 16 03            ld d, 3
  88+ 8490 3E 03            ld a, #03
  89+ 8492 CD 26 84         call ay_out
  90+ 8495 16 06            ld d, 6
  91+ 8497 3E 10            ld a, #10
  92+ 8499 CD 26 84         call ay_out
  93+ 849C C9               ret
  94+ 849D
  95+ 849D              ; ---- Main music tick (call once per frame from any state) ----
  96+ 849D              ay_tick_music:
  97+ 849D 3A 48 84         ld a, (music_mode)
  98+ 84A0 FE 01            cp 1
  99+ 84A2 CA AB 84         jp z, ay_tick_title_mode
 100+ 84A5 FE 02            cp 2
 101+ 84A7 CA C5 85         jp z, ay_tick_ambient_mode
 102+ 84AA C9               ret
 103+ 84AB
 104+ 84AB              ay_tick_title_mode:
 105+ 84AB CD B8 84         call ay_title_bass
 106+ 84AE CD F8 84         call ay_title_pad
 107+ 84B1 CD 41 85         call ay_title_drums
 108+ 84B4 CD 56 8D         call ay_tick_sfx
 109+ 84B7 C9               ret
 110+ 84B8
 111+ 84B8              ; -- Bass: 4 stabs then rest, The Thing style --
 112+ 84B8              ay_title_bass:
 113+ 84B8 21 4A 84         ld hl, bass_timer
 114+ 84BB 35               dec (hl)
 115+ 84BC C0               ret nz
 116+ 84BD 3A 4B 84         ld a, (bass_step)
 117+ 84C0 E6 0F            and #0f
 118+ 84C2 87               add a, a
 119+ 84C3 5F               ld e, a
 120+ 84C4 16 00            ld d, 0
 121+ 84C6 21 E4 84         ld hl, bass_pattern
 122+ 84C9 19               add hl, de
 123+ 84CA 7E               ld a, (hl)
 124+ 84CB E5               push hl
 125+ 84CC 16 08            ld d, 8
 126+ 84CE CD 26 84         call ay_out
 127+ 84D1 E1               pop hl
 128+ 84D2 23               inc hl
 129+ 84D3 7E               ld a, (hl)
 130+ 84D4 32 4A 84         ld (bass_timer), a
 131+ 84D7 21 4B 84         ld hl, bass_step
 132+ 84DA 34               inc (hl)
 133+ 84DB 7E               ld a, (hl)
 134+ 84DC FE 0A            cp 10
 135+ 84DE D8               ret c
 136+ 84DF AF               xor a
 137+ 84E0 32 4B 84         ld (bass_step), a
 138+ 84E3 C9               ret
 139+ 84E4
 140+ 84E4              bass_pattern:
 141+ 84E4 0F 04            DB 15, 4
 142+ 84E6 00 15            DB 0,  21
 143+ 84E8 0E 04            DB 14, 4
 144+ 84EA 00 15            DB 0,  21
 145+ 84EC 0D 04            DB 13, 4
 146+ 84EE 00 15            DB 0,  21
 147+ 84F0 0C 04            DB 12, 4
 148+ 84F2 00 2E            DB 0,  46
 149+ 84F4 0F 04            DB 15, 4
 150+ 84F6 00 15            DB 0,  21
 151+ 84F8
 152+ 84F8              ; -- Pad: slow chord tones (C minor: C3, Eb3, G3) --
 153+ 84F8              ay_title_pad:
 154+ 84F8 21 4C 84         ld hl, pad_timer
 155+ 84FB 35               dec (hl)
 156+ 84FC C0               ret nz
 157+ 84FD 3A 4D 84         ld a, (pad_step)
 158+ 8500 FE 03            cp 3
 159+ 8502 38 04            jr c, .pad_ok
 160+ 8504 AF               xor a
 161+ 8505 32 4D 84         ld (pad_step), a
 162+ 8508              .pad_ok:
 163+ 8508 87               add a, a
 164+ 8509 87               add a, a
 165+ 850A 5F               ld e, a
 166+ 850B 16 00            ld d, 0
 167+ 850D 21 35 85         ld hl, pad_data
 168+ 8510 19               add hl, de
 169+ 8511 7E               ld a, (hl)
 170+ 8512 E5               push hl
 171+ 8513 16 02            ld d, 2
 172+ 8515 CD 26 84         call ay_out
 173+ 8518 E1               pop hl
 174+ 8519 23               inc hl
 175+ 851A 7E               ld a, (hl)
 176+ 851B E5               push hl
 177+ 851C 16 03            ld d, 3
 178+ 851E CD 26 84         call ay_out
 179+ 8521 E1               pop hl
 180+ 8522 23               inc hl
 181+ 8523 7E               ld a, (hl)
 182+ 8524 E5               push hl
 183+ 8525 16 09            ld d, 9
 184+ 8527 CD 26 84         call ay_out
 185+ 852A E1               pop hl
 186+ 852B 23               inc hl
 187+ 852C 7E               ld a, (hl)
 188+ 852D 32 4C 84         ld (pad_timer), a
 189+ 8530 21 4D 84         ld hl, pad_step
 190+ 8533 34               inc (hl)
 191+ 8534 C9               ret
 192+ 8535
 193+ 8535              pad_data:
 194+ 8535 50 03 0A 64      DB #50, #03, 10, 100
 195+ 8539 C3 02 09 64      DB #C3, #02, 9,  100
 196+ 853D 37 02 0A 64      DB #37, #02, 10, 100
 197+ 8541
 198+ 8541              ; -- Drums: kick/snare/hat pattern --
 199+ 8541              ay_title_drums:
 200+ 8541 21 4E 84         ld hl, drum_timer
 201+ 8544 35               dec (hl)
 202+ 8545 C0               ret nz
 203+ 8546 3A 4F 84         ld a, (drum_step)
 204+ 8549 FE 08            cp 8
 205+ 854B 38 04            jr c, .dr_ok
 206+ 854D AF               xor a
 207+ 854E 32 4F 84         ld (drum_step), a
 208+ 8551              .dr_ok:
 209+ 8551 87               add a, a
 210+ 8552 87               add a, a
 211+ 8553 5F               ld e, a
 212+ 8554 16 00            ld d, 0
 213+ 8556 21 7E 85         ld hl, drum_data
 214+ 8559 19               add hl, de
 215+ 855A 7E               ld a, (hl)
 216+ 855B E5               push hl
 217+ 855C 16 06            ld d, 6
 218+ 855E CD 26 84         call ay_out
 219+ 8561 E1               pop hl
 220+ 8562 23               inc hl
 221+ 8563 7E               ld a, (hl)
 222+ 8564 E5               push hl
 223+ 8565 16 07            ld d, 7
 224+ 8567 CD 26 84         call ay_out
 225+ 856A E1               pop hl
 226+ 856B 23               inc hl
 227+ 856C 7E               ld a, (hl)
 228+ 856D E5               push hl
 229+ 856E 16 0A            ld d, 10
 230+ 8570 CD 26 84         call ay_out
 231+ 8573 E1               pop hl
 232+ 8574 23               inc hl
 233+ 8575 7E               ld a, (hl)
 234+ 8576 32 4E 84         ld (drum_timer), a
 235+ 8579 21 4F 84         ld hl, drum_step
 236+ 857C 34               inc (hl)
 237+ 857D C9               ret
 238+ 857E
 239+ 857E              drum_data:
 240+ 857E 1F 24 0F 03      DB #1F, %00100100, 15, 3
 241+ 8582 1F 3C 00 09      DB #1F, %00111100, 0,  9
 242+ 8586 0A 24 0C 03      DB #0A, %00100100, 12, 3
 243+ 858A 0A 3C 00 09      DB #0A, %00111100, 0,  9
 244+ 858E 1F 24 0E 03      DB #1F, %00100100, 14, 3
 245+ 8592 1F 3C 00 09      DB #1F, %00111100, 0,  9
 246+ 8596 0A 24 0B 03      DB #0A, %00100100, 11, 3
 247+ 859A 0A 3C 00 09      DB #0A, %00111100, 0,  9
 248+ 859E
 249+ 859E              ; ---- In-game ambient init ----
 250+ 859E              ay_init_ambient:
 251+ 859E CD 35 84         call ay_mute
 252+ 85A1 16 07            ld d, 7
 253+ 85A3 3E 3E            ld a, %00111110
 254+ 85A5 CD 26 84         call ay_out
 255+ 85A8 16 00            ld d, 0
 256+ 85AA 3E A0            ld a, #a0
 257+ 85AC CD 26 84         call ay_out
 258+ 85AF 16 01            ld d, 1
 259+ 85B1 3E 06            ld a, #06
 260+ 85B3 CD 26 84         call ay_out
 261+ 85B6 3E 02            ld a, 2
 262+ 85B8 32 48 84         ld (music_mode), a
 263+ 85BB AF               xor a
 264+ 85BC 32 4B 84         ld (bass_step), a
 265+ 85BF 3E 01            ld a, 1
 266+ 85C1 32 4A 84         ld (bass_timer), a
 267+ 85C4 C9               ret
 268+ 85C5
 269+ 85C5              ; ---- Ambient tick: 4 beats per bar, decreasing volume ----
 270+ 85C5              ay_tick_ambient_mode:
 271+ 85C5 CD 56 8D         call ay_tick_sfx
 272+ 85C8 21 4A 84         ld hl, bass_timer
 273+ 85CB 35               dec (hl)
 274+ 85CC C0               ret nz
 275+ 85CD 3A 4B 84         ld a, (bass_step)
 276+ 85D0 FE 08            cp 8
 277+ 85D2 38 04            jr c, .amb_ok
 278+ 85D4 AF               xor a
 279+ 85D5 32 4B 84         ld (bass_step), a
 280+ 85D8              .amb_ok:
 281+ 85D8 87               add a, a
 282+ 85D9 5F               ld e, a
 283+ 85DA 16 00            ld d, 0
 284+ 85DC 21 F2 85         ld hl, amb_pattern
 285+ 85DF 19               add hl, de
 286+ 85E0 7E               ld a, (hl)
 287+ 85E1 E5               push hl
 288+ 85E2 16 08            ld d, 8
 289+ 85E4 CD 26 84         call ay_out
 290+ 85E7 E1               pop hl
 291+ 85E8 23               inc hl
 292+ 85E9 7E               ld a, (hl)
 293+ 85EA 32 4A 84         ld (bass_timer), a
 294+ 85ED 21 4B 84         ld hl, bass_step
 295+ 85F0 34               inc (hl)
 296+ 85F1 C9               ret
 297+ 85F2
 298+ 85F2              amb_pattern:
 299+ 85F2 0F 04            DB 15, 4
 300+ 85F4 00 08            DB 0,  8
 301+ 85F6 0B 04            DB 11, 4
 302+ 85F8 00 08            DB 0,  8
 303+ 85FA 04 04            DB 4,  4
 304+ 85FC 00 08            DB 0,  8
 305+ 85FE 01 04            DB 1,  4
 306+ 8600 00 38            DB 0,  56
 307+ 8602
 308+ 8602              ; ---- SFX trigger: A = SFX_xxx ----
 309+ 8602              ay_play_sfx:
 310+ 8602 32 50 84         ld (sfx_id), a
 311+ 8605 B7               or a
 312+ 8606 C8               ret z
 313+ 8607 FE 01            cp SFX_CLICK
 314+ 8609 CA 21 86         jp z, sfx_start_click
 315+ 860C FE 02            cp SFX_CHIRP
 316+ 860E CA 43 86         jp z, sfx_start_chirp
 317+ 8611 FE 03            cp SFX_ASK
 318+ 8613 CA 65 86         jp z, sfx_start_ask
 319+ 8616 FE 04            cp SFX_CORRECT
 320+ 8618 CA 87 86         jp z, sfx_start_correct
 321+ 861B FE 05            cp SFX_WRONG
 322+ 861D CA BE 86         jp z, sfx_start_wrong
 323+ 8620 C9               ret
 324+ 8621
 325+ 8621              sfx_start_click:
 326+ 8621 3E 02            ld a, 2
 327+ 8623 32 51 84         ld (sfx_timer), a
 328+ 8626 16 04            ld d, 4
 329+ 8628 3E 40            ld a, #40
 330+ 862A CD 26 84         call ay_out
 331+ 862D 16 05            ld d, 5
 332+ 862F 3E 00            ld a, #00
 333+ 8631 CD 26 84         call ay_out
 334+ 8634 16 0A            ld d, 10
 335+ 8636 3E 0C            ld a, 12
 336+ 8638 CD 26 84         call ay_out
 337+ 863B 16 07            ld d, 7
 338+ 863D 3E 38            ld a, %00111000
 339+ 863F CD 26 84         call ay_out
 340+ 8642 C9               ret
 341+ 8643
 342+ 8643              sfx_start_chirp:
 343+ 8643 3E 04            ld a, 4
 344+ 8645 32 51 84         ld (sfx_timer), a
 345+ 8648 16 04            ld d, 4
 346+ 864A 3E 80            ld a, #80
 347+ 864C CD 26 84         call ay_out
 348+ 864F 16 05            ld d, 5
 349+ 8651 3E 00            ld a, #00
 350+ 8653 CD 26 84         call ay_out
 351+ 8656 16 0A            ld d, 10
 352+ 8658 3E 0E            ld a, 14
 353+ 865A CD 26 84         call ay_out
 354+ 865D 16 07            ld d, 7
 355+ 865F 3E 38            ld a, %00111000
 356+ 8661 CD 26 84         call ay_out
 357+ 8664 C9               ret
 358+ 8665
 359+ 8665              sfx_start_ask:
 360+ 8665 3E 08            ld a, 8
 361+ 8667 32 51 84         ld (sfx_timer), a
 362+ 866A 16 02            ld d, 2
 363+ 866C 3E 00            ld a, #00
 364+ 866E CD 26 84         call ay_out
 365+ 8671 16 03            ld d, 3
 366+ 8673 3E 02            ld a, #02
 367+ 8675 CD 26 84         call ay_out
 368+ 8678 16 09            ld d, 9
 369+ 867A 3E 0D            ld a, 13
 370+ 867C CD 26 84         call ay_out
 371+ 867F 16 07            ld d, 7
 372+ 8681 3E 34            ld a, %00110100
 373+ 8683 CD 26 84         call ay_out
 374+ 8686 C9               ret
 375+ 8687
 376+ 8687              sfx_start_correct:
 377+ 8687 3E 10            ld a, 16
 378+ 8689 32 51 84         ld (sfx_timer), a
 379+ 868C 16 02            ld d, 2
 380+ 868E 3E 7F            ld a, #7F
 381+ 8690 CD 26 84         call ay_out
 382+ 8693 16 03            ld d, 3
 383+ 8695 3E 01            ld a, #01
 384+ 8697 CD 26 84         call ay_out
 385+ 869A 16 04            ld d, 4
 386+ 869C 3E 37            ld a, #37
 387+ 869E CD 26 84         call ay_out
 388+ 86A1 16 05            ld d, 5
 389+ 86A3 3E 01            ld a, #01
 390+ 86A5 CD 26 84         call ay_out
 391+ 86A8 16 09            ld d, 9
 392+ 86AA 3E 0F            ld a, 15
 393+ 86AC CD 26 84         call ay_out
 394+ 86AF 16 0A            ld d, 10
 395+ 86B1 3E 0F            ld a, 15
 396+ 86B3 CD 26 84         call ay_out
 397+ 86B6 16 07            ld d, 7
 398+ 86B8 3E 38            ld a, %00111000
 399+ 86BA CD 26 84         call ay_out
 400+ 86BD C9               ret
 401+ 86BE
 402+ 86BE              sfx_start_wrong:
 403+ 86BE                  ; Harsh descending two-tone alarm with noise burst
 404+ 86BE 3E 28            ld a, 40
 405+ 86C0 32 51 84         ld (sfx_timer), a
 406+ 86C3                  ; Channel B: low harsh tone (A3 ~220Hz, period ~503)
 407+ 86C3 16 02            ld d, 2
 408+ 86C5 3E F7            ld a, #F7
 409+ 86C7 CD 26 84         call ay_out
 410+ 86CA 16 03            ld d, 3
 411+ 86CC 3E 01            ld a, #01
 412+ 86CE CD 26 84         call ay_out
 413+ 86D1                  ; Channel C: dissonant tone (Bb2 ~117Hz, period ~946)
 414+ 86D1 16 04            ld d, 4
 415+ 86D3 3E B2            ld a, #B2
 416+ 86D5 CD 26 84         call ay_out
 417+ 86D8 16 05            ld d, 5
 418+ 86DA 3E 03            ld a, #03
 419+ 86DC CD 26 84         call ay_out
 420+ 86DF                  ; Noise: harsh static
 421+ 86DF 16 06            ld d, 6
 422+ 86E1 3E 04            ld a, #04
 423+ 86E3 CD 26 84         call ay_out
 424+ 86E6                  ; Both channels full volume
 425+ 86E6 16 09            ld d, 9
 426+ 86E8 3E 0F            ld a, 15
 427+ 86EA CD 26 84         call ay_out
 428+ 86ED 16 0A            ld d, 10
 429+ 86EF 3E 0F            ld a, 15
 430+ 86F1 CD 26 84         call ay_out
 431+ 86F4                  ; Mixer: enable tones B+C and noise on C
 432+ 86F4 16 07            ld d, 7
 433+ 86F6 3E 08            ld a, %00001000
 434+ 86F8 CD 26 84         call ay_out
 435+ 86FB C9               ret
 436+ 86FC
 437+ 86FC              ; ===============================================================
 438+ 86FC              ; Beeper 1-bit PCM sample playback
 439+ 86FC              ; Plays packed 1-bit data (8 samples/byte, MSB first) through
 440+ 86FC              ; the beeper at ~8kHz. CPU is locked during playback.
 441+ 86FC              ; ===============================================================
 442+ 86FC              play_hell_yeah:
 443+ 86FC CD 35 84         call ay_mute
 444+ 86FF 21 20 87         ld hl, hellyeah_data
 445+ 8702 11 36 06         ld de, HELLYEAH_BYTES
 446+ 8705 F3               di
 447+ 8706              .phy_byte:
 448+ 8706 46               ld b, (hl)
 449+ 8707 23               inc hl
 450+ 8708 0E 08            ld c, 8
 451+ 870A              .phy_bit:
 452+ 870A CB 10            rl b
 453+ 870C 9F               sbc a, a
 454+ 870D E6 10            and #10
 455+ 870F D3 FE            out (#fe), a
 456+ 8711 3E 17            ld a, 23
 457+ 8713              .phy_dly:
 458+ 8713 3D               dec a
 459+ 8714 20 FD            jr nz, .phy_dly
 460+ 8716 0D               dec c
 461+ 8717 20 F1            jr nz, .phy_bit
 462+ 8719 1B               dec de
 463+ 871A 7A               ld a, d
 464+ 871B B3               or e
 465+ 871C 20 E8            jr nz, .phy_byte
 466+ 871E FB               ei
 467+ 871F C9               ret
 468+ 8720
 469+ 8720              hellyeah_data:
 470+ 8720                  INCBIN "hellyeah.bin"
 471+ 8D56              HELLYEAH_BYTES EQU $ - hellyeah_data
 472+ 8D56
 473+ 8D56              ; ---- SFX tick (called each frame) ----
 474+ 8D56              ay_tick_sfx:
 475+ 8D56 3A 51 84         ld a, (sfx_timer)
 476+ 8D59 B7               or a
 477+ 8D5A C8               ret z
 478+ 8D5B 3D               dec a
 479+ 8D5C 32 51 84         ld (sfx_timer), a
 480+ 8D5F B7               or a
 481+ 8D60 C0               ret nz
 482+ 8D61 16 09            ld d, 9
 483+ 8D63 AF               xor a
 484+ 8D64 CD 26 84         call ay_out
 485+ 8D67 16 0A            ld d, 10
 486+ 8D69 AF               xor a
 487+ 8D6A CD 26 84         call ay_out
 488+ 8D6D AF               xor a
 489+ 8D6E 32 50 84         ld (sfx_id), a
 490+ 8D71 3A 48 84         ld a, (music_mode)
 491+ 8D74 FE 01            cp 1
 492+ 8D76 28 05            jr z, .sfx_restore_title
 493+ 8D78 FE 02            cp 2
 494+ 8D7A 28 09            jr z, .sfx_restore_ambient
 495+ 8D7C C9               ret
 496+ 8D7D              .sfx_restore_title:
 497+ 8D7D 16 07            ld d, 7
 498+ 8D7F 3E 24            ld a, %00100100
 499+ 8D81 CD 26 84         call ay_out
 500+ 8D84 C9               ret
 501+ 8D85              .sfx_restore_ambient:
 502+ 8D85 16 07            ld d, 7
 503+ 8D87 3E 3E            ld a, %00111110
 504+ 8D89 CD 26 84         call ay_out
 505+ 8D8C C9               ret
 506+ 8D8D
# file closed: ay_music.asm
  61  8D8D                  INCLUDE "portrait.asm"
# file opened: portrait.asm
   1+ 8D8D              ; portrait.asm — Procedural attribute-block portrait generation
   2+ 8D8D              ; Draws into portrait area: cols 0-7, rows 2-13
   3+ 8D8D
   4+ 8D8D              ; Skin colour palette indexed by (seed & 3)
   5+ 8D8D              skin_colours:
   6+ 8D8D 7F               DB INK_WHITE + (INK_WHITE*8) + BRIGHT
   7+ 8D8E 76               DB INK_YELLOW + (INK_YELLOW*8) + BRIGHT
   8+ 8D8F 6D               DB INK_CYAN + (INK_CYAN*8) + BRIGHT
   9+ 8D90 3F               DB INK_WHITE + (INK_WHITE*8)
  10+ 8D91
  11+ 8D91              ; Hair colour palette indexed by ((seed>>2) & 3)
  12+ 8D91              hair_colours:
  13+ 8D91 00               DB INK_BLACK + (INK_BLACK*8)
  14+ 8D92 12               DB INK_RED + (INK_RED*8)
  15+ 8D93 09               DB INK_BLUE + (INK_BLUE*8)
  16+ 8D94 1B               DB INK_MAG + (INK_MAG*8)
  17+ 8D95
  18+ 8D95              ; Eye colour (always dark)
  19+ 8D95 40           eye_attr: DB INK_BLACK + (INK_BLACK*8) + BRIGHT
  20+ 8D96
  21+ 8D96              ; Mouth colour
  22+ 8D96 12           mouth_attr: DB INK_RED + (INK_RED*8)
  23+ 8D97
  24+ 8D97              ; Background for portrait region
  25+ 8D97 00           port_bg: DB INK_BLACK + (INK_BLACK*8)
  26+ 8D98
  27+ 8D98              ; Draw portrait for subject at HL (subject record pointer).
  28+ 8D98              ; Uses portrait_seed field (offset 6) to vary features.
  29+ 8D98              draw_portrait:
  30+ 8D98 E5               push hl
  31+ 8D99 11 06 00         ld de, SUBJ_PORTRAIT
  32+ 8D9C 19               add hl, de
  33+ 8D9D 7E               ld a, (hl)
  34+ 8D9E 32 CF 8E         ld (port_seed_lo), a
  35+ 8DA1 23               inc hl
  36+ 8DA2 7E               ld a, (hl)
  37+ 8DA3 32 D0 8E         ld (port_seed_hi), a
  38+ 8DA6 E1               pop hl
  39+ 8DA7
  40+ 8DA7                  ; Clear portrait area to background
  41+ 8DA7 16 02            ld d, PORTRAIT_ROW
  42+ 8DA9              .dp_clr:
  43+ 8DA9 7A               ld a, d
  44+ 8DAA FE 0E            cp PORTRAIT_ROW + PORTRAIT_H
  45+ 8DAC 30 0F            jr nc, .dp_clr_done
  46+ 8DAE D5               push de
  47+ 8DAF 06 00            ld b, PORTRAIT_COL
  48+ 8DB1 1E 08            ld e, PORTRAIT_W
  49+ 8DB3 3A 97 8D         ld a, (port_bg)
  50+ 8DB6 CD 77 81         call set_row_attrs
  51+ 8DB9 D1               pop de
  52+ 8DBA 14               inc d
  53+ 8DBB 18 EC            jr .dp_clr
  54+ 8DBD              .dp_clr_done:
  55+ 8DBD
  56+ 8DBD                  ; Select skin colour
  57+ 8DBD 3A CF 8E         ld a, (port_seed_lo)
  58+ 8DC0 E6 03            and 3
  59+ 8DC2 21 8D 8D         ld hl, skin_colours
  60+ 8DC5 4F               ld c, a
  61+ 8DC6 06 00            ld b, 0
  62+ 8DC8 09               add hl, bc
  63+ 8DC9 7E               ld a, (hl)
  64+ 8DCA 32 D1 8E         ld (port_skin), a
  65+ 8DCD
  66+ 8DCD                  ; Select hair colour
  67+ 8DCD 3A CF 8E         ld a, (port_seed_lo)
  68+ 8DD0 CB 3F            srl a
  69+ 8DD2 CB 3F            srl a
  70+ 8DD4 E6 03            and 3
  71+ 8DD6 21 91 8D         ld hl, hair_colours
  72+ 8DD9 4F               ld c, a
  73+ 8DDA 06 00            ld b, 0
  74+ 8DDC 09               add hl, bc
  75+ 8DDD 7E               ld a, (hl)
  76+ 8DDE 32 D2 8E         ld (port_hair), a
  77+ 8DE1
  78+ 8DE1                  ; Fill face region (rows 4-12, cols 1-6) with skin
  79+ 8DE1 16 04            ld d, PORTRAIT_ROW + 2
  80+ 8DE3              .dp_skin:
  81+ 8DE3 7A               ld a, d
  82+ 8DE4 FE 0C            cp PORTRAIT_ROW + 10
  83+ 8DE6 30 0F            jr nc, .dp_skin_done
  84+ 8DE8 D5               push de
  85+ 8DE9 06 01            ld b, PORTRAIT_COL + 1
  86+ 8DEB 1E 06            ld e, 6
  87+ 8DED 3A D1 8E         ld a, (port_skin)
  88+ 8DF0 CD 77 81         call set_row_attrs
  89+ 8DF3 D1               pop de
  90+ 8DF4 14               inc d
  91+ 8DF5 18 EC            jr .dp_skin
  92+ 8DF7              .dp_skin_done:
  93+ 8DF7
  94+ 8DF7                  ; Hair (rows 2-3, cols 1-6 or 2-5 depending on hair type)
  95+ 8DF7 3A CF 8E         ld a, (port_seed_lo)
  96+ 8DFA CB 3F            srl a
  97+ 8DFC CB 3F            srl a
  98+ 8DFE CB 3F            srl a
  99+ 8E00 CB 3F            srl a
 100+ 8E02 E6 03            and 3
 101+ 8E04 FE 00            cp 0
 102+ 8E06 28 38            jr z, .dp_hair_bald
 103+ 8E08 FE 01            cp 1
 104+ 8E0A 28 1A            jr z, .dp_hair_short
 105+ 8E0C
 106+ 8E0C                  ; Full hair: rows 2-3, cols 1-6
 107+ 8E0C 3A D2 8E         ld a, (port_hair)
 108+ 8E0F 16 02            ld d, PORTRAIT_ROW
 109+ 8E11 06 01            ld b, PORTRAIT_COL + 1
 110+ 8E13 1E 06            ld e, 6
 111+ 8E15 CD 77 81         call set_row_attrs
 112+ 8E18 16 03            ld d, PORTRAIT_ROW + 1
 113+ 8E1A 06 01            ld b, PORTRAIT_COL + 1
 114+ 8E1C 1E 06            ld e, 6
 115+ 8E1E 3A D2 8E         ld a, (port_hair)
 116+ 8E21 CD 77 81         call set_row_attrs
 117+ 8E24 18 32            jr .dp_hair_done
 118+ 8E26
 119+ 8E26              .dp_hair_short:
 120+ 8E26                  ; Short hair: row 2 cols 2-5
 121+ 8E26 3A D2 8E         ld a, (port_hair)
 122+ 8E29 16 02            ld d, PORTRAIT_ROW
 123+ 8E2B 06 02            ld b, PORTRAIT_COL + 2
 124+ 8E2D 1E 04            ld e, 4
 125+ 8E2F CD 77 81         call set_row_attrs
 126+ 8E32                  ; Row 3: skin
 127+ 8E32 3A D1 8E         ld a, (port_skin)
 128+ 8E35 16 03            ld d, PORTRAIT_ROW + 1
 129+ 8E37 06 01            ld b, PORTRAIT_COL + 1
 130+ 8E39 1E 06            ld e, 6
 131+ 8E3B CD 77 81         call set_row_attrs
 132+ 8E3E 18 18            jr .dp_hair_done
 133+ 8E40
 134+ 8E40              .dp_hair_bald:
 135+ 8E40                  ; Bald: rows 2-3 are skin (already set for row 4+; fill rows 2-3)
 136+ 8E40 3A D1 8E         ld a, (port_skin)
 137+ 8E43 16 02            ld d, PORTRAIT_ROW
 138+ 8E45 06 02            ld b, PORTRAIT_COL + 2
 139+ 8E47 1E 04            ld e, 4
 140+ 8E49 CD 77 81         call set_row_attrs
 141+ 8E4C 3A D1 8E         ld a, (port_skin)
 142+ 8E4F 16 03            ld d, PORTRAIT_ROW + 1
 143+ 8E51 06 01            ld b, PORTRAIT_COL + 1
 144+ 8E53 1E 06            ld e, 6
 145+ 8E55 CD 77 81         call set_row_attrs
 146+ 8E58
 147+ 8E58              .dp_hair_done:
 148+ 8E58
 149+ 8E58                  ; Eyes at row 5 (portrait row + 3)
 150+ 8E58                  ; Eye position varies: seed bit 0 of high byte
 151+ 8E58 3A D0 8E         ld a, (port_seed_hi)
 152+ 8E5B E6 01            and 1
 153+ 8E5D 28 1A            jr z, .dp_eyes_normal
 154+ 8E5F                  ; Wide eyes: cols 1 and 6
 155+ 8E5F 3A 95 8D         ld a, (eye_attr)
 156+ 8E62 16 05            ld d, PORTRAIT_ROW + 3
 157+ 8E64 06 01            ld b, PORTRAIT_COL + 1
 158+ 8E66 1E 01            ld e, 1
 159+ 8E68 CD 77 81         call set_row_attrs
 160+ 8E6B 3A 95 8D         ld a, (eye_attr)
 161+ 8E6E 16 05            ld d, PORTRAIT_ROW + 3
 162+ 8E70 06 06            ld b, PORTRAIT_COL + 6
 163+ 8E72 1E 01            ld e, 1
 164+ 8E74 CD 77 81         call set_row_attrs
 165+ 8E77 18 18            jr .dp_eyes_done
 166+ 8E79              .dp_eyes_normal:
 167+ 8E79                  ; Normal eyes: cols 2 and 5
 168+ 8E79 3A 95 8D         ld a, (eye_attr)
 169+ 8E7C 16 05            ld d, PORTRAIT_ROW + 3
 170+ 8E7E 06 02            ld b, PORTRAIT_COL + 2
 171+ 8E80 1E 01            ld e, 1
 172+ 8E82 CD 77 81         call set_row_attrs
 173+ 8E85 3A 95 8D         ld a, (eye_attr)
 174+ 8E88 16 05            ld d, PORTRAIT_ROW + 3
 175+ 8E8A 06 05            ld b, PORTRAIT_COL + 5
 176+ 8E8C 1E 01            ld e, 1
 177+ 8E8E CD 77 81         call set_row_attrs
 178+ 8E91              .dp_eyes_done:
 179+ 8E91
 180+ 8E91                  ; Nose at row 7 (portrait row + 5): cols 3-4
 181+ 8E91 3A D1 8E         ld a, (port_skin)
 182+ 8E94                  ; Slightly different shade: reduce brightness
 183+ 8E94 E6 BF            and ~BRIGHT
 184+ 8E96 16 07            ld d, PORTRAIT_ROW + 5
 185+ 8E98 06 03            ld b, PORTRAIT_COL + 3
 186+ 8E9A 1E 02            ld e, 2
 187+ 8E9C CD 77 81         call set_row_attrs
 188+ 8E9F
 189+ 8E9F                  ; Mouth at row 9 (portrait row + 7)
 190+ 8E9F 3A D0 8E         ld a, (port_seed_hi)
 191+ 8EA2 CB 3F            srl a
 192+ 8EA4 E6 01            and 1
 193+ 8EA6 28 0E            jr z, .dp_mouth_wide
 194+ 8EA8                  ; Narrow mouth: cols 3-4
 195+ 8EA8 3A 96 8D         ld a, (mouth_attr)
 196+ 8EAB 16 09            ld d, PORTRAIT_ROW + 7
 197+ 8EAD 06 03            ld b, PORTRAIT_COL + 3
 198+ 8EAF 1E 02            ld e, 2
 199+ 8EB1 CD 77 81         call set_row_attrs
 200+ 8EB4 18 0C            jr .dp_mouth_done
 201+ 8EB6              .dp_mouth_wide:
 202+ 8EB6                  ; Wide mouth: cols 2-5
 203+ 8EB6 3A 96 8D         ld a, (mouth_attr)
 204+ 8EB9 16 09            ld d, PORTRAIT_ROW + 7
 205+ 8EBB 06 02            ld b, PORTRAIT_COL + 2
 206+ 8EBD 1E 04            ld e, 4
 207+ 8EBF CD 77 81         call set_row_attrs
 208+ 8EC2              .dp_mouth_done:
 209+ 8EC2
 210+ 8EC2                  ; Jaw: rows 10-11 narrowing
 211+ 8EC2 3A D1 8E         ld a, (port_skin)
 212+ 8EC5 16 0B            ld d, PORTRAIT_ROW + 9
 213+ 8EC7 06 02            ld b, PORTRAIT_COL + 2
 214+ 8EC9 1E 04            ld e, 4
 215+ 8ECB CD 77 81         call set_row_attrs
 216+ 8ECE
 217+ 8ECE C9               ret
 218+ 8ECF
 219+ 8ECF 00           port_seed_lo: db 0
 220+ 8ED0 00           port_seed_hi: db 0
 221+ 8ED1 00           port_skin:    db 0
 222+ 8ED2 00           port_hair:    db 0
 223+ 8ED3
# file closed: portrait.asm
  62  8ED3                  INCLUDE "question.asm"
# file opened: question.asm
   1+ 8ED3              ; question.asm — Voight-Kampff engine: classification, gauges, pattern, fragments
   2+ 8ED3
   3+ 8ED3              ; Classify selected icons into a question class.
   4+ 8ED3              ; Reads query_icons and query_count. Returns A = QCLASS_xxx.
   5+ 8ED3              classify_query:
   6+ 8ED3 3A D6 EA         ld a, (query_count)
   7+ 8ED6 B7               or a
   8+ 8ED7 3E 03            ld a, QCLASS_CALIBRATE
   9+ 8ED9 C8               ret z
  10+ 8EDA
  11+ 8EDA                  ; Check if any procedural icon (12-15) is present -> calibration
  12+ 8EDA 06 03            ld b, 3
  13+ 8EDC 21 D7 EA         ld hl, query_icons
  14+ 8EDF              .cq_check_proc:
  15+ 8EDF 7E               ld a, (hl)
  16+ 8EE0 FE FF            cp ICON_NONE
  17+ 8EE2 28 04            jr z, .cq_skip_proc
  18+ 8EE4 FE 0C            cp 12
  19+ 8EE6 30 05            jr nc, .cq_is_calib
  20+ 8EE8              .cq_skip_proc:
  21+ 8EE8 23               inc hl
  22+ 8EE9 10 F4            djnz .cq_check_proc
  23+ 8EEB 18 03            jr .cq_not_calib
  24+ 8EED              .cq_is_calib:
  25+ 8EED 3E 03            ld a, QCLASS_CALIBRATE
  26+ 8EEF C9               ret
  27+ 8EF0
  28+ 8EF0              .cq_not_calib:
  29+ 8EF0                  ; Check if any abstract icon (8-11) -> contradiction test
  30+ 8EF0 06 03            ld b, 3
  31+ 8EF2 21 D7 EA         ld hl, query_icons
  32+ 8EF5              .cq_check_abs:
  33+ 8EF5 7E               ld a, (hl)
  34+ 8EF6 FE FF            cp ICON_NONE
  35+ 8EF8 28 08            jr z, .cq_skip_abs
  36+ 8EFA FE 08            cp 8
  37+ 8EFC 38 04            jr c, .cq_skip_abs
  38+ 8EFE FE 0C            cp 12
  39+ 8F00 38 05            jr c, .cq_is_contra
  40+ 8F02              .cq_skip_abs:
  41+ 8F02 23               inc hl
  42+ 8F03 10 F0            djnz .cq_check_abs
  43+ 8F05 18 03            jr .cq_not_contra
  44+ 8F07              .cq_is_contra:
  45+ 8F07 3E 02            ld a, QCLASS_CONTRADICT
  46+ 8F09 C9               ret
  47+ 8F0A
  48+ 8F0A              .cq_not_contra:
  49+ 8F0A                  ; Check if any relational icon (4-7) -> memory probe
  50+ 8F0A 06 03            ld b, 3
  51+ 8F0C 21 D7 EA         ld hl, query_icons
  52+ 8F0F              .cq_check_rel:
  53+ 8F0F 7E               ld a, (hl)
  54+ 8F10 FE FF            cp ICON_NONE
  55+ 8F12 28 08            jr z, .cq_skip_rel
  56+ 8F14 FE 04            cp 4
  57+ 8F16 38 04            jr c, .cq_skip_rel
  58+ 8F18 FE 08            cp 8
  59+ 8F1A 38 06            jr c, .cq_is_mem
  60+ 8F1C              .cq_skip_rel:
  61+ 8F1C 23               inc hl
  62+ 8F1D 10 F0            djnz .cq_check_rel
  63+ 8F1F
  64+ 8F1F                  ; Default: emotional trigger (all icons 0-3)
  65+ 8F1F 3E 00            ld a, QCLASS_EMOTIONAL
  66+ 8F21 C9               ret
  67+ 8F22              .cq_is_mem:
  68+ 8F22 3E 01            ld a, QCLASS_MEMORY
  69+ 8F24 C9               ret
  70+ 8F25
  71+ 8F25              ; ================================================================
  72+ 8F25              ; Compute emotional weight of the current query (0-100).
  73+ 8F25              ; Based on which icons are selected and their inherent weight.
  74+ 8F25              ; Returns A = weight, also stores in q_weight global.
  75+ 8F25              ; ================================================================
  76+ 8F25              compute_q_weight:
  77+ 8F25 21 D7 EA         ld hl, query_icons
  78+ 8F28 06 03            ld b, 3
  79+ 8F2A 0E 00            ld c, 0             ; accumulator
  80+ 8F2C              .cqw_lp:
  81+ 8F2C 7E               ld a, (hl)
  82+ 8F2D FE FF            cp ICON_NONE
  83+ 8F2F 28 0E            jr z, .cqw_skip
  84+ 8F31 E5               push hl
  85+ 8F32 C5               push bc
  86+ 8F33 5F               ld e, a
  87+ 8F34 16 00            ld d, 0
  88+ 8F36 21 4D 8F         ld hl, icon_weights
  89+ 8F39 19               add hl, de
  90+ 8F3A 7E               ld a, (hl)
  91+ 8F3B C1               pop bc
  92+ 8F3C 81               add a, c
  93+ 8F3D 4F               ld c, a
  94+ 8F3E E1               pop hl
  95+ 8F3F              .cqw_skip:
  96+ 8F3F 23               inc hl
  97+ 8F40 10 EA            djnz .cqw_lp
  98+ 8F42                  ; c = sum of icon weights. Clamp to 100.
  99+ 8F42 79               ld a, c
 100+ 8F43 FE 65            cp 101
 101+ 8F45 38 02            jr c, .cqw_ok
 102+ 8F47 3E 64            ld a, 100
 103+ 8F49              .cqw_ok:
 104+ 8F49 32 E4 EA         ld (q_weight), a
 105+ 8F4C C9               ret
 106+ 8F4D
 107+ 8F4D              ; Emotional weight per icon (0-15). Higher = more provocative.
 108+ 8F4D              icon_weights:
 109+ 8F4D 1E               DB 30   ; MEMORY
 110+ 8F4E 28               DB 40   ; FEAR
 111+ 8F4F 2D               DB 45   ; PAIN
 112+ 8F50 14               DB 20   ; JOY
 113+ 8F51 23               DB 35   ; ANIMAL
 114+ 8F52 26               DB 38   ; CHILD
 115+ 8F53 32               DB 50   ; MOTHER
 116+ 8F54 19               DB 25   ; STRANGER
 117+ 8F55 0F               DB 15   ; TIME
 118+ 8F56 2D               DB 45   ; DEATH
 119+ 8F57 1E               DB 30   ; SELF
 120+ 8F58 23               DB 35   ; TRUTH
 121+ 8F59 05               DB 5    ; REPEAT
 122+ 8F5A 0A               DB 10   ; DEEPER
 123+ 8F5B 05               DB 5    ; STOP
 124+ 8F5C 05               DB 5    ; FILE
 125+ 8F5D
 126+ 8F5D              ; ================================================================
 127+ 8F5D              ; Compute dual gauge readings (pupil + flush) for the current question.
 128+ 8F5D              ; HL = current_subj pointer. A = question class.
 129+ 8F5D              ; Stores results in pupil_gauge and flush_gauge (0-32 range for bar display).
 130+ 8F5D              ; Also shifts previous readings and updates pattern_flag.
 131+ 8F5D              ; ================================================================
 132+ 8F5D              compute_gauges:
 133+ 8F5D 32 57 90         ld (cg_class), a
 134+ 8F60 22 58 90         ld (cg_subj), hl
 135+ 8F63
 136+ 8F63                  ; Shift previous gauge history
 137+ 8F63 3A DF EA         ld a, (prev_pupil+1)
 138+ 8F66 32 E0 EA         ld (prev_pupil+2), a
 139+ 8F69 3A DE EA         ld a, (prev_pupil)
 140+ 8F6C 32 DF EA         ld (prev_pupil+1), a
 141+ 8F6F 3A DC EA         ld a, (pupil_gauge)
 142+ 8F72 32 DE EA         ld (prev_pupil), a
 143+ 8F75 3A E2 EA         ld a, (prev_flush+1)
 144+ 8F78 32 E3 EA         ld (prev_flush+2), a
 145+ 8F7B 3A E1 EA         ld a, (prev_flush)
 146+ 8F7E 32 E2 EA         ld (prev_flush+1), a
 147+ 8F81 3A DD EA         ld a, (flush_gauge)
 148+ 8F84 32 E1 EA         ld (prev_flush), a
 149+ 8F87
 150+ 8F87                  ; Get subject type and relevant stats
 151+ 8F87 2A 58 90         ld hl, (cg_subj)
 152+ 8F8A 7E               ld a, (hl)          ; type
 153+ 8F8B 32 5A 90         ld (cg_type), a
 154+ 8F8E 23               inc hl
 155+ 8F8F 7E               ld a, (hl)          ; empathy
 156+ 8F90 32 5B 90         ld (cg_empathy), a
 157+ 8F93 23               inc hl
 158+ 8F94 7E               ld a, (hl)          ; aggression
 159+ 8F95 32 5C 90         ld (cg_aggression), a
 160+ 8F98 23               inc hl
 161+ 8F99 7E               ld a, (hl)          ; stability
 162+ 8F9A 32 5D 90         ld (cg_stability), a
 163+ 8F9D 23               inc hl
 164+ 8F9E 7E               ld a, (hl)          ; deception
 165+ 8F9F 32 5E 90         ld (cg_deception), a
 166+ 8FA2 23               inc hl
 167+ 8FA3 7E               ld a, (hl)          ; difficulty
 168+ 8FA4 32 5F 90         ld (cg_difficulty), a
 169+ 8FA7
 170+ 8FA7                  ; Get emotional weight
 171+ 8FA7 3A E4 EA         ld a, (q_weight)
 172+ 8FAA 32 60 90         ld (cg_weight), a
 173+ 8FAD
 174+ 8FAD                  ; --- Compute base pupil gauge ---
 175+ 8FAD                  ; For humans: pupil ~ weight * empathy / 100, scaled to 0-32
 176+ 8FAD                  ; For androids: pupil is damped/inverted based on difficulty
 177+ 8FAD 3A 5A 90         ld a, (cg_type)
 178+ 8FB0 B7               or a
 179+ 8FB1 20 17            jr nz, .cg_android_pupil
 180+ 8FB3
 181+ 8FB3                  ; Human pupil: proportional to weight, modulated by empathy
 182+ 8FB3 3A 60 90         ld a, (cg_weight)
 183+ 8FB6 47               ld b, a
 184+ 8FB7 3A 5B 90         ld a, (cg_empathy)
 185+ 8FBA CD 62 90         call mul8_hi         ; A ~ (weight * empathy) >> 8, range 0-39
 186+ 8FBD 47               ld b, a
 187+ 8FBE                  ; Add noise +/- 4
 188+ 8FBE C5               push bc
 189+ 8FBF CD E8 90         call rng_tick
 190+ 8FC2 C1               pop bc
 191+ 8FC3 E6 07            and 7
 192+ 8FC5 D6 04            sub 4
 193+ 8FC7 80               add a, b
 194+ 8FC8 18 23            jr .cg_pupil_done
 195+ 8FCA
 196+ 8FCA              .cg_android_pupil:
 197+ 8FCA                  ; Android pupil: inversely proportional on hard questions (empathy mismatch)
 198+ 8FCA                  ; Base: low response, plus deception masking
 199+ 8FCA 3A 60 90         ld a, (cg_weight)
 200+ 8FCD 47               ld b, a
 201+ 8FCE 3A 5E 90         ld a, (cg_deception)
 202+ 8FD1 CD 62 90         call mul8_hi         ; A ~ (weight * deception) >> 8
 203+ 8FD4 47               ld b, a
 204+ 8FD5                  ; Rachael-type inversion: for D5, react MORE to low weight, LESS to high
 205+ 8FD5 3A 5F 90         ld a, (cg_difficulty)
 206+ 8FD8 FE 05            cp 5
 207+ 8FDA 20 07            jr nz, .cg_andr_no_inv
 208+ 8FDC                  ; Invert: gauge = 20 - base_gauge
 209+ 8FDC 3E 14            ld a, 20
 210+ 8FDE 90               sub b
 211+ 8FDF 30 01            jr nc, .cg_andr_inv_ok
 212+ 8FE1 AF               xor a
 213+ 8FE2              .cg_andr_inv_ok:
 214+ 8FE2 47               ld b, a
 215+ 8FE3              .cg_andr_no_inv:
 216+ 8FE3                  ; Add small noise (less than human)
 217+ 8FE3 C5               push bc
 218+ 8FE4 CD E8 90         call rng_tick
 219+ 8FE7 C1               pop bc
 220+ 8FE8 E6 03            and 3
 221+ 8FEA D6 02            sub 2
 222+ 8FEC 80               add a, b
 223+ 8FED
 224+ 8FED              .cg_pupil_done:
 225+ 8FED                  ; Clamp 0 to GAUGE_BAR_W (17)
 226+ 8FED 30 01            jr nc, .cg_p_no_under
 227+ 8FEF AF               xor a
 228+ 8FF0              .cg_p_no_under:
 229+ 8FF0 FE 12            cp GAUGE_BAR_W + 1
 230+ 8FF2 38 02            jr c, .cg_p_no_over
 231+ 8FF4 3E 11            ld a, GAUGE_BAR_W
 232+ 8FF6              .cg_p_no_over:
 233+ 8FF6 32 DC EA         ld (pupil_gauge), a
 234+ 8FF9
 235+ 8FF9                  ; --- Compute base flush gauge ---
 236+ 8FF9                  ; For humans: flush ~ weight * (100 - stability) / 100, with noise
 237+ 8FF9                  ; For androids: flush is too stable / too even
 238+ 8FF9 3A 5A 90         ld a, (cg_type)
 239+ 8FFC B7               or a
 240+ 8FFD 20 23            jr nz, .cg_android_flush
 241+ 8FFF
 242+ 8FFF                  ; Human flush: emotional arousal from instability
 243+ 8FFF 3E 64            ld a, 100
 244+ 9001 47               ld b, a
 245+ 9002 3A 5D 90         ld a, (cg_stability)
 246+ 9005 4F               ld c, a
 247+ 9006 78               ld a, b
 248+ 9007 91               sub c               ; A = 100 - stability (higher = more reactive)
 249+ 9008 32 61 90         ld (cg_temp), a     ; save instability
 250+ 900B 3A 60 90         ld a, (cg_weight)
 251+ 900E 47               ld b, a             ; B = weight
 252+ 900F 3A 61 90         ld a, (cg_temp)     ; A = instability
 253+ 9012 CD 62 90         call mul8_hi        ; A = (instability * weight) >> 8
 254+ 9015 47               ld b, a
 255+ 9016                  ; Add noise +/- 5
 256+ 9016 C5               push bc
 257+ 9017 CD E8 90         call rng_tick
 258+ 901A C1               pop bc
 259+ 901B E6 0F            and #0f
 260+ 901D D6 05            sub 5
 261+ 901F 80               add a, b
 262+ 9020 18 25            jr .cg_flush_done
 263+ 9022
 264+ 9022              .cg_android_flush:
 265+ 9022                  ; Android flush: suspiciously even, scaled by deception
 266+ 9022 3A 5E 90         ld a, (cg_deception)
 267+ 9025 CB 3F            srl a
 268+ 9027 CB 3F            srl a
 269+ 9029 CB 3F            srl a               ; deception / 8 -> 0-12 range
 270+ 902B 47               ld b, a
 271+ 902C                  ; D4+ androids add synthetic variance
 272+ 902C 3A 5F 90         ld a, (cg_difficulty)
 273+ 902F FE 04            cp 4
 274+ 9031 38 0C            jr c, .cg_andr_flush_flat
 275+ 9033 C5               push bc
 276+ 9034 CD E8 90         call rng_tick
 277+ 9037 C1               pop bc
 278+ 9038 E6 07            and 7
 279+ 903A D6 03            sub 3
 280+ 903C 80               add a, b
 281+ 903D 18 08            jr .cg_flush_done
 282+ 903F              .cg_andr_flush_flat:
 283+ 903F                  ; Low difficulty: very flat, minimal noise
 284+ 903F C5               push bc
 285+ 9040 CD E8 90         call rng_tick
 286+ 9043 C1               pop bc
 287+ 9044 E6 01            and 1
 288+ 9046 80               add a, b
 289+ 9047
 290+ 9047              .cg_flush_done:
 291+ 9047                  ; Clamp 0 to GAUGE_BAR_W (17)
 292+ 9047 30 01            jr nc, .cg_f_no_under
 293+ 9049 AF               xor a
 294+ 904A              .cg_f_no_under:
 295+ 904A FE 12            cp GAUGE_BAR_W + 1
 296+ 904C 38 02            jr c, .cg_f_no_over
 297+ 904E 3E 11            ld a, GAUGE_BAR_W
 298+ 9050              .cg_f_no_over:
 299+ 9050 32 DD EA         ld (flush_gauge), a
 300+ 9053
 301+ 9053                  ; --- Compute pattern flag ---
 302+ 9053 CD 72 90         call compute_pattern
 303+ 9056 C9               ret
 304+ 9057
 305+ 9057              ; Temporaries for compute_gauges
 306+ 9057 00           cg_class:      DB 0
 307+ 9058 00 00        cg_subj:       DW 0
 308+ 905A 00           cg_type:       DB 0
 309+ 905B 00           cg_empathy:    DB 0
 310+ 905C 00           cg_aggression: DB 0
 311+ 905D 00           cg_stability:  DB 0
 312+ 905E 00           cg_deception:  DB 0
 313+ 905F 00           cg_difficulty: DB 0
 314+ 9060 00           cg_weight:     DB 0
 315+ 9061 00           cg_temp:       DB 0
 316+ 9062
 317+ 9062              ; ================================================================
 318+ 9062              ; 8-bit multiply high byte: A = (A * B) >> 8
 319+ 9062              ; For inputs 0-100, result is 0-39 — good for gauge range 0-32.
 320+ 9062              ; Inputs: A, B. Returns A. Clobbers HL, DE, B.
 321+ 9062              ; ================================================================
 322+ 9062              mul8_hi:
 323+ 9062 16 00            ld d, 0
 324+ 9064 58               ld e, b
 325+ 9065 62               ld h, d
 326+ 9066 6A               ld l, d
 327+ 9067 06 08            ld b, 8
 328+ 9069              .m8_lp:
 329+ 9069 29               add hl, hl
 330+ 906A 87               add a, a
 331+ 906B 30 01            jr nc, .m8_no
 332+ 906D 19               add hl, de
 333+ 906E              .m8_no:
 334+ 906E 10 F9            djnz .m8_lp
 335+ 9070 7C               ld a, h
 336+ 9071 C9               ret
 337+ 9072
 338+ 9072              ; ================================================================
 339+ 9072              ; Compute pattern: compares last 3 pupil readings for consistency.
 340+ 9072              ; STABLE = all within 5 of each other, ERRATIC = max diff > 15,
 341+ 9072              ; otherwise SHIFTING.
 342+ 9072              ; Stores result in pattern_flag (0/1/2).
 343+ 9072              ; ================================================================
 344+ 9072              compute_pattern:
 345+ 9072                  ; Only meaningful after 2+ questions
 346+ 9072 3A D3 EA         ld a, (questions_asked)
 347+ 9075 FE 02            cp 2
 348+ 9077 30 06            jr nc, .cp_go
 349+ 9079 3E 01            ld a, PAT_SHIFTING
 350+ 907B 32 E5 EA         ld (pattern_flag), a
 351+ 907E C9               ret
 352+ 907F              .cp_go:
 353+ 907F                  ; Find max and min of prev_pupil[0..2]
 354+ 907F 3A DE EA         ld a, (prev_pupil)
 355+ 9082 47               ld b, a              ; min
 356+ 9083 4F               ld c, a              ; max
 357+ 9084 3A DF EA         ld a, (prev_pupil+1)
 358+ 9087 B8               cp b
 359+ 9088 30 01            jr nc, .cp1_not_min
 360+ 908A 47               ld b, a
 361+ 908B              .cp1_not_min:
 362+ 908B B9               cp c
 363+ 908C 38 01            jr c, .cp1_not_max
 364+ 908E 4F               ld c, a
 365+ 908F              .cp1_not_max:
 366+ 908F 3A E0 EA         ld a, (prev_pupil+2)
 367+ 9092 B8               cp b
 368+ 9093 30 01            jr nc, .cp2_not_min
 369+ 9095 47               ld b, a
 370+ 9096              .cp2_not_min:
 371+ 9096 B9               cp c
 372+ 9097 38 01            jr c, .cp2_not_max
 373+ 9099 4F               ld c, a
 374+ 909A              .cp2_not_max:
 375+ 909A                  ; diff = max - min
 376+ 909A 79               ld a, c
 377+ 909B 90               sub b
 378+ 909C                  ; A = difference
 379+ 909C FE 05            cp 5
 380+ 909E 30 06            jr nc, .cp_not_stable
 381+ 90A0 3E 00            ld a, PAT_STABLE
 382+ 90A2 32 E5 EA         ld (pattern_flag), a
 383+ 90A5 C9               ret
 384+ 90A6              .cp_not_stable:
 385+ 90A6 FE 0F            cp 15
 386+ 90A8 30 06            jr nc, .cp_erratic
 387+ 90AA 3E 01            ld a, PAT_SHIFTING
 388+ 90AC 32 E5 EA         ld (pattern_flag), a
 389+ 90AF C9               ret
 390+ 90B0              .cp_erratic:
 391+ 90B0 3E 02            ld a, PAT_ERRATIC
 392+ 90B2 32 E5 EA         ld (pattern_flag), a
 393+ 90B5 C9               ret
 394+ 90B6
 395+ 90B6              ; ================================================================
 396+ 90B6              ; Select response based on first selected icon, subject type,
 397+ 90B6              ; and RNG. 16 icons x 2 types x 8 variations = 256 entries.
 398+ 90B6              ; Index = icon * 16 + type * 8 + variation(0-7).
 399+ 90B6              ; Returns HL = pointer to response string.
 400+ 90B6              ; ================================================================
 401+ 90B6              select_and_build_response:
 402+ 90B6 2A DA EA         ld hl, (current_subj)
 403+ 90B9 7E               ld a, (hl)
 404+ 90BA 32 E7 90         ld (sr_subj_type), a
 405+ 90BD
 406+ 90BD                  ; Get first selected icon
 407+ 90BD 3A D7 EA         ld a, (query_icons)
 408+ 90C0 FE FF            cp ICON_NONE
 409+ 90C2 20 01            jr nz, .sr_has_icon
 410+ 90C4 AF               xor a
 411+ 90C5              .sr_has_icon:
 412+ 90C5                  ; icon * 16
 413+ 90C5 87               add a, a
 414+ 90C6 87               add a, a
 415+ 90C7 87               add a, a
 416+ 90C8 87               add a, a
 417+ 90C9 57               ld d, a
 418+ 90CA
 419+ 90CA                  ; type * 8
 420+ 90CA 3A E7 90         ld a, (sr_subj_type)
 421+ 90CD 87               add a, a
 422+ 90CE 87               add a, a
 423+ 90CF 87               add a, a
 424+ 90D0 82               add a, d
 425+ 90D1 57               ld d, a              ; D = icon*16 + type*8
 426+ 90D2
 427+ 90D2                  ; Variation: rng mod 8
 428+ 90D2 D5               push de
 429+ 90D3 CD E8 90         call rng_tick
 430+ 90D6 D1               pop de
 431+ 90D7 E6 07            and 7
 432+ 90D9 82               add a, d             ; A = final index (0-255)
 433+ 90DA
 434+ 90DA                  ; 16-bit table lookup: icon_response_ptrs + index * 2
 435+ 90DA 6F               ld l, a
 436+ 90DB 26 00            ld h, 0
 437+ 90DD 29               add hl, hl           ; HL = index * 2
 438+ 90DE 11 BE 92         ld de, icon_response_ptrs
 439+ 90E1 19               add hl, de
 440+ 90E2 7E               ld a, (hl)
 441+ 90E3 23               inc hl
 442+ 90E4 66               ld h, (hl)
 443+ 90E5 6F               ld l, a
 444+ 90E6 C9               ret
 445+ 90E7
 446+ 90E7 00           sr_subj_type:  DB 0
 447+ 90E8
 448+ 90E8              ; Simple RNG
 449+ 90E8              rng_tick:
 450+ 90E8 C5               push bc
 451+ 90E9 2A CE EA         ld hl, (rng_seed)
 452+ 90EC 7C               ld a, h
 453+ 90ED AD               xor l
 454+ 90EE 47               ld b, a
 455+ 90EF 29               add hl, hl
 456+ 90F0 29               add hl, hl
 457+ 90F1 29               add hl, hl
 458+ 90F2 7D               ld a, l
 459+ 90F3 A8               xor b
 460+ 90F4 6F               ld l, a
 461+ 90F5 11 97 15         ld de, #1597
 462+ 90F8 19               add hl, de
 463+ 90F9 22 CE EA         ld (rng_seed), hl
 464+ 90FC 7D               ld a, l
 465+ 90FD C1               pop bc
 466+ 90FE C9               ret
 467+ 90FF
# file closed: question.asm
  63  90FF                  INCLUDE "subjects.asm"
# file opened: subjects.asm
   1+ 90FF              ; subjects.asm — 10 subject archetypes (5 difficulty x human/android)
   2+ 90FF              ; Each record: type, empathy, aggression, stability, deception, difficulty, portrait_seed(w), name_ptr(w)
   3+ 90FF              ; At game start, RNG picks human or android for each level.
   4+ 90FF
   5+ 90FF              ; ---- Human archetypes (D1-D5) ----
   6+ 90FF              subj_table_human:
   7+ 90FF                  ; D1 Human: relaxed, emotionally open
   8+ 90FF 00 55 0F 46      DB TYPE_HUMAN, 85, 15, 70, 10, 1
   8+ 9103 0A 01
   9+ 9105 34 12            DW #1234
  10+ 9107 68 91            DW subj_name_0
  11+ 9109
  12+ 9109                  ; D2 Human: generally emotional, slightly guarded
  13+ 9109 00 48 19 41      DB TYPE_HUMAN, 72, 25, 65, 20, 2
  13+ 910D 14 02
  14+ 910F 78 56            DW #5678
  15+ 9111 7C 91            DW subj_name_2
  16+ 9113
  17+ 9113                  ; D3 Human: reserved personality, lower amplitude
  18+ 9113 00 37 23 32      DB TYPE_HUMAN, 55, 35, 50, 30, 3
  18+ 9117 1E 03
  19+ 9119 BC 9A            DW #9ABC
  20+ 911B 94 91            DW subj_name_4
  21+ 911D
  22+ 911D                  ; D4 Human: stressed/anxious, flat gauges from anxiety
  23+ 911D 00 28 37 1E      DB TYPE_HUMAN, 40, 55, 30, 15, 4
  23+ 9121 0F 04
  24+ 9123 F0 DE            DW #DEF0
  25+ 9125 A9 91            DW subj_name_6
  26+ 9127
  27+ 9127                  ; D5 Human: complex, guarded, possibly traumatised
  28+ 9127 00 1E 2D 19      DB TYPE_HUMAN, 30, 45, 25, 45, 5
  28+ 912B 2D 05
  29+ 912D CD AB            DW #ABCD
  30+ 912F BF 91            DW subj_name_8
  31+ 9131
  32+ 9131              ; ---- Android archetypes (D1-D5) ----
  33+ 9131              subj_table_android:
  34+ 9131                  ; D1 Android (Leon-type): obvious flat, deflects
  35+ 9131 01 12 41 50      DB TYPE_ANDROID, 18, 65, 80, 30, 1
  35+ 9135 1E 01
  36+ 9137 45 23            DW #2345
  37+ 9139 72 91            DW subj_name_1
  38+ 913B
  39+ 913B                  ; D2 Android: better verbal but gauges still flat
  40+ 913B 01 1C 32 4B      DB TYPE_ANDROID, 28, 50, 75, 50, 2
  40+ 913F 32 02
  41+ 9141 89 67            DW #6789
  42+ 9143 88 91            DW subj_name_3
  43+ 9145
  44+ 9145                  ; D3 Android: trained mimicry, uniform amplitude
  45+ 9145 01 28 28 46      DB TYPE_ANDROID, 40, 40, 70, 65, 3
  45+ 9149 41 03
  46+ 914B CE AB            DW #ABCE
  47+ 914D 9F 91            DW subj_name_5
  48+ 914F
  49+ 914F                  ; D4 Android: sophisticated, manufactured variance
  50+ 914F 01 34 23 3C      DB TYPE_ANDROID, 52, 35, 60, 80, 4
  50+ 9153 50 04
  51+ 9155 01 EF            DW #EF01
  52+ 9157 B4 91            DW subj_name_7
  53+ 9159
  54+ 9159                  ; D5 Android (Rachael-type): near-perfect, subtle inversions
  55+ 9159 01 41 14 37      DB TYPE_ANDROID, 65, 20, 55, 92, 5
  55+ 915D 5C 05
  56+ 915F DE BC            DW #BCDE
  57+ 9161 CB 91            DW subj_name_9
  58+ 9163
  59+ 9163              ; Score penalty per question, indexed by level-1
  60+ 9163              penalty_table:
  61+ 9163 0F 0C 0A 08      DB 15, 12, 10, 8, 6
  61+ 9167 06
  62+ 9168
  63+ 9168              ; Subject name pool (10 names)
  64+ 9168 4B 49 52 41  subj_name_0: DB "KIRA VOSS",0
  64+ 916C 20 56 4F 53
  64+ 9170 53 00
  65+ 9172 4C 45 4F 4E  subj_name_1: DB "LEON WRAY",0
  65+ 9176 20 57 52 41
  65+ 917A 59 00
  66+ 917C 59 55 4B 49  subj_name_2: DB "YUKI TANAKA",0
  66+ 9180 20 54 41 4E
  66+ 9184 41 4B 41 00
  67+ 9188 43 4F 4C 45  subj_name_3: DB "COLE MERCER",0
  67+ 918C 20 4D 45 52
  67+ 9190 43 45 52 00
  68+ 9194 52 45 49 4E  subj_name_4: DB "REINA PARK",0
  68+ 9198 41 20 50 41
  68+ 919C 52 4B 00
  69+ 919F 44 41 4E 41  subj_name_5: DB "DANA KENT",0
  69+ 91A3 20 4B 45 4E
  69+ 91A7 54 00
  70+ 91A9 41 4C 45 58  subj_name_6: DB "ALEX DREEN",0
  70+ 91AD 20 44 52 45
  70+ 91B1 45 4E 00
  71+ 91B4 4E 41 53 48  subj_name_7: DB "NASH OTERI",0
  71+ 91B8 20 4F 54 45
  71+ 91BC 52 49 00
  72+ 91BF 4A 55 44 45  subj_name_8: DB "JUDE SEVRIN",0
  72+ 91C3 20 53 45 56
  72+ 91C7 52 49 4E 00
  73+ 91CB 4D 49 52 41  subj_name_9: DB "MIRA TYRELL",0
  73+ 91CF 20 54 59 52
  73+ 91D3 45 4C 4C 00
  74+ 91D7
  75+ 91D7              ; --- Populate active_subjects from archetype tables using RNG ---
  76+ 91D7              ; Called once at game start. For each of the 5 levels, flips a coin
  77+ 91D7              ; to pick human or android archetype, then copies SUBJ_SIZE bytes
  78+ 91D7              ; into active_subjects. Also randomizes portrait seed.
  79+ 91D7              init_active_subjects:
  80+ 91D7 DD 21 E7 EA      ld ix, active_subjects
  81+ 91DB 0E 00            ld c, 0             ; level index 0-4
  82+ 91DD              .ias_loop:
  83+ 91DD 79               ld a, c
  84+ 91DE FE 05            cp NUM_LEVELS
  85+ 91E0 D0               ret nc
  86+ 91E1
  87+ 91E1 C5               push bc
  88+ 91E2
  89+ 91E2                  ; Get RNG bit to decide human (0) or android (1)
  90+ 91E2 CD E8 90         call rng_tick
  91+ 91E5 E6 01            and 1
  92+ 91E7 28 08            jr z, .ias_human
  93+ 91E9
  94+ 91E9                  ; Android: source = subj_table_android + c * SUBJ_SIZE
  95+ 91E9 C1               pop bc
  96+ 91EA C5               push bc
  97+ 91EB 79               ld a, c
  98+ 91EC 21 31 91         ld hl, subj_table_android
  99+ 91EF 18 06            jr .ias_copy
 100+ 91F1
 101+ 91F1              .ias_human:
 102+ 91F1 C1               pop bc
 103+ 91F2 C5               push bc
 104+ 91F3 79               ld a, c
 105+ 91F4 21 FF 90         ld hl, subj_table_human
 106+ 91F7
 107+ 91F7              .ias_copy:
 108+ 91F7                  ; HL = table base, A = level index; compute HL += A * SUBJ_SIZE (10)
 109+ 91F7 B7               or a
 110+ 91F8 28 07            jr z, .ias_no_offset
 111+ 91FA 47               ld b, a
 112+ 91FB              .ias_mul:
 113+ 91FB 11 0A 00         ld de, SUBJ_SIZE
 114+ 91FE 19               add hl, de
 115+ 91FF 10 FA            djnz .ias_mul
 116+ 9201              .ias_no_offset:
 117+ 9201                  ; Copy SUBJ_SIZE bytes from (HL) to (IX)
 118+ 9201 06 0A            ld b, SUBJ_SIZE
 119+ 9203              .ias_cp_byte:
 120+ 9203 7E               ld a, (hl)
 121+ 9204 DD 77 00         ld (ix+0), a
 122+ 9207 23               inc hl
 123+ 9208 DD 23            inc ix
 124+ 920A 10 F7            djnz .ias_cp_byte
 125+ 920C
 126+ 920C                  ; Randomize portrait seed for this subject (overwrite bytes at offset 6-7)
 127+ 920C DD E5            push ix
 128+ 920E 11 FC FF         ld de, -SUBJ_SIZE + SUBJ_PORTRAIT
 129+ 9211 DD 19            add ix, de
 130+ 9213 CD E8 90         call rng_tick
 131+ 9216 DD 77 00         ld (ix+0), a
 132+ 9219 CD E8 90         call rng_tick
 133+ 921C DD 77 01         ld (ix+1), a
 134+ 921F DD E1            pop ix
 135+ 9221
 136+ 9221 C1               pop bc
 137+ 9222 0C               inc c
 138+ 9223 18 B8            jr .ias_loop
 139+ 9225
 140+ 9225              ; Look up active subject record: A = level (1-5), returns HL = pointer
 141+ 9225              get_subject_ptr:
 142+ 9225 3D               dec a
 143+ 9226 6F               ld l, a
 144+ 9227 26 00            ld h, 0
 145+ 9229 4D               ld c, l
 146+ 922A 44               ld b, h
 147+ 922B 29               add hl, hl
 148+ 922C 29               add hl, hl
 149+ 922D 09               add hl, bc
 150+ 922E 29               add hl, hl         ; HL = (level-1) * 10
 151+ 922F 01 E7 EA         ld bc, active_subjects
 152+ 9232 09               add hl, bc
 153+ 9233 C9               ret
 154+ 9234
 155+ 9234              ; A = level (1-5), returns A = penalty per question
 156+ 9234              get_penalty:
 157+ 9234 3D               dec a
 158+ 9235 21 63 91         ld hl, penalty_table
 159+ 9238 4F               ld c, a
 160+ 9239 06 00            ld b, 0
 161+ 923B 09               add hl, bc
 162+ 923C 7E               ld a, (hl)
 163+ 923D C9               ret
 164+ 923E
# file closed: subjects.asm
  64  923E                  INCLUDE "data_text.asm"
# file opened: data_text.asm
   1+ 923E              ; data_text.asm — All text strings, hero responses, and label data
   2+ 923E
   3+ 923E              ; Icon label strings (8 chars max, padded for grid display)
   4+ 923E              icon_labels:
   5+ 923E 5E 92 65 92      DW il_0, il_1, il_2, il_3
   5+ 9242 6A 92 6F 92
   6+ 9246 73 92 7A 92      DW il_4, il_5, il_6, il_7
   6+ 924A 80 92 87 92
   7+ 924E 90 92 95 92      DW il_8, il_9, il_10, il_11
   7+ 9252 9B 92 A0 92
   8+ 9256 A6 92 AD 92      DW il_12, il_13, il_14, il_15
   8+ 925A B4 92 B9 92
   9+ 925E 4D 45 4D 4F  il_0:  DB "MEMORY",0
   9+ 9262 52 59 00
  10+ 9265 46 45 41 52  il_1:  DB "FEAR",0
  10+ 9269 00
  11+ 926A 50 41 49 4E  il_2:  DB "PAIN",0
  11+ 926E 00
  12+ 926F 4A 4F 59 00  il_3:  DB "JOY",0
  13+ 9273 41 4E 49 4D  il_4:  DB "ANIMAL",0
  13+ 9277 41 4C 00
  14+ 927A 43 48 49 4C  il_5:  DB "CHILD",0
  14+ 927E 44 00
  15+ 9280 4D 4F 54 48  il_6:  DB "MOTHER",0
  15+ 9284 45 52 00
  16+ 9287 53 54 52 41  il_7:  DB "STRANGER",0
  16+ 928B 4E 47 45 52
  16+ 928F 00
  17+ 9290 54 49 4D 45  il_8:  DB "TIME",0
  17+ 9294 00
  18+ 9295 44 45 41 54  il_9:  DB "DEATH",0
  18+ 9299 48 00
  19+ 929B 53 45 4C 46  il_10: DB "SELF",0
  19+ 929F 00
  20+ 92A0 54 52 55 54  il_11: DB "TRUTH",0
  20+ 92A4 48 00
  21+ 92A6 52 45 50 45  il_12: DB "REPEAT",0
  21+ 92AA 41 54 00
  22+ 92AD 44 45 45 50  il_13: DB "DEEPER",0
  22+ 92B1 45 52 00
  23+ 92B4 53 54 4F 50  il_14: DB "STOP",0
  23+ 92B8 00
  24+ 92B9 46 49 4C 45  il_15: DB "FILE",0
  24+ 92BD 00
  25+ 92BE
  26+ 92BE              ; =============================================================
  27+ 92BE              ; Icon-specific response pointer table
  28+ 92BE              ; 256 entries: 16 icons x 2 types x 8 variations
  29+ 92BE              ; Layout per icon: [human x8] [android x8]
  30+ 92BE              ; =============================================================
  31+ 92BE              icon_response_ptrs:
  32+ 92BE                  ; Icon 0: MEMORY
  33+ 92BE BE 94 F1 94      DW ir_mem_h0,ir_mem_h1,ir_mem_h2,ir_mem_h3,ir_mem_h4,ir_mem_h5,ir_mem_h6,ir_mem_h7
  33+ 92C2 24 95 55 95
  33+ 92C6 82 95 B1 95
  33+ 92CA E5 95 12 96
  34+ 92CE 48 96 6C 96      DW ir_mem_a0,ir_mem_a1,ir_mem_a2,ir_mem_a3,ir_mem_a4,ir_mem_a5,ir_mem_a6,ir_mem_a7
  34+ 92D2 A0 96 D0 96
  34+ 92D6 F5 96 24 97
  34+ 92DA 55 97 7F 97
  35+ 92DE                  ; Icon 1: FEAR
  36+ 92DE AF 97 E3 97      DW ir_fear_h0,ir_fear_h1,ir_fear_h2,ir_fear_h3,ir_fear_h4,ir_fear_h5,ir_fear_h6,ir_fear_h7
  36+ 92E2 15 98 43 98
  36+ 92E6 78 98 A7 98
  36+ 92EA D1 98 04 99
  37+ 92EE 32 99 67 99      DW ir_fear_a0,ir_fear_a1,ir_fear_a2,ir_fear_a3,ir_fear_a4,ir_fear_a5,ir_fear_a6,ir_fear_a7
  37+ 92F2 95 99 BF 99
  37+ 92F6 E8 99 16 9A
  37+ 92FA 41 9A 75 9A
  38+ 92FE                  ; Icon 2: PAIN
  39+ 92FE A8 9A DB 9A      DW ir_pain_h0,ir_pain_h1,ir_pain_h2,ir_pain_h3,ir_pain_h4,ir_pain_h5,ir_pain_h6,ir_pain_h7
  39+ 9302 08 9B 39 9B
  39+ 9306 61 9B 95 9B
  39+ 930A C4 9B F0 9B
  40+ 930E 25 9C 48 9C      DW ir_pain_a0,ir_pain_a1,ir_pain_a2,ir_pain_a3,ir_pain_a4,ir_pain_a5,ir_pain_a6,ir_pain_a7
  40+ 9312 7B 9C AA 9C
  40+ 9316 D0 9C FC 9C
  40+ 931A 2E 9D 59 9D
  41+ 931E                  ; Icon 3: JOY
  42+ 931E 8B 9D BB 9D      DW ir_joy_h0,ir_joy_h1,ir_joy_h2,ir_joy_h3,ir_joy_h4,ir_joy_h5,ir_joy_h6,ir_joy_h7
  42+ 9322 EC 9D 20 9E
  42+ 9326 50 9E 7D 9E
  42+ 932A B1 9E E3 9E
  43+ 932E 0C 9F 3B 9F      DW ir_joy_a0,ir_joy_a1,ir_joy_a2,ir_joy_a3,ir_joy_a4,ir_joy_a5,ir_joy_a6,ir_joy_a7
  43+ 9332 6B 9F 9A 9F
  43+ 9336 C6 9F F2 9F
  43+ 933A 1F A0 4C A0
  44+ 933E                  ; Icon 4: ANIMAL
  45+ 933E 7D A0 A7 A0      DW ir_anim_h0,ir_anim_h1,ir_anim_h2,ir_anim_h3,ir_anim_h4,ir_anim_h5,ir_anim_h6,ir_anim_h7
  45+ 9342 D1 A0 FE A0
  45+ 9346 2E A1 5F A1
  45+ 934A 8B A1 BB A1
  46+ 934E ED A1 05 A2      DW ir_anim_a0,ir_anim_a1,ir_anim_a2,ir_anim_a3,ir_anim_a4,ir_anim_a5,ir_anim_a6,ir_anim_a7
  46+ 9352 37 A2 6A A2
  46+ 9356 97 A2 C0 A2
  46+ 935A EB A2 1C A3
  47+ 935E                  ; Icon 5: CHILD
  48+ 935E 4C A3 7D A3      DW ir_chld_h0,ir_chld_h1,ir_chld_h2,ir_chld_h3,ir_chld_h4,ir_chld_h5,ir_chld_h6,ir_chld_h7
  48+ 9362 AB A3 DF A3
  48+ 9366 0B A4 3C A4
  48+ 936A 6F A4 94 A4
  49+ 936E C6 A4 F0 A4      DW ir_chld_a0,ir_chld_a1,ir_chld_a2,ir_chld_a3,ir_chld_a4,ir_chld_a5,ir_chld_a6,ir_chld_a7
  49+ 9372 22 A5 51 A5
  49+ 9376 7F A5 AD A5
  49+ 937A E1 A5 0E A6
  50+ 937E                  ; Icon 6: MOTHER
  51+ 937E 3D A6 66 A6      DW ir_moth_h0,ir_moth_h1,ir_moth_h2,ir_moth_h3,ir_moth_h4,ir_moth_h5,ir_moth_h6,ir_moth_h7
  51+ 9382 96 A6 BE A6
  51+ 9386 DF A6 10 A7
  51+ 938A 42 A7 72 A7
  52+ 938E A3 A7 C9 A7      DW ir_moth_a0,ir_moth_a1,ir_moth_a2,ir_moth_a3,ir_moth_a4,ir_moth_a5,ir_moth_a6,ir_moth_a7
  52+ 9392 F8 A7 28 A8
  52+ 9396 49 A8 7D A8
  52+ 939A AC A8 DE A8
  53+ 939E                  ; Icon 7: STRANGER
  54+ 939E 0D A9 43 A9      DW ir_str_h0,ir_str_h1,ir_str_h2,ir_str_h3,ir_str_h4,ir_str_h5,ir_str_h6,ir_str_h7
  54+ 93A2 6D A9 9C A9
  54+ 93A6 C5 A9 F4 A9
  54+ 93AA 2D AA 60 AA
  55+ 93AE 95 AA C4 AA      DW ir_str_a0,ir_str_a1,ir_str_a2,ir_str_a3,ir_str_a4,ir_str_a5,ir_str_a6,ir_str_a7
  55+ 93B2 F1 AA 25 AB
  55+ 93B6 55 AB 84 AB
  55+ 93BA BA AB EC AB
  56+ 93BE                  ; Icon 8: TIME
  57+ 93BE 1E AC 51 AC      DW ir_time_h0,ir_time_h1,ir_time_h2,ir_time_h3,ir_time_h4,ir_time_h5,ir_time_h6,ir_time_h7
  57+ 93C2 7B AC A0 AC
  57+ 93C6 CC AC FE AC
  57+ 93CA 2C AD 5B AD
  58+ 93CE 8E AD BA AD      DW ir_time_a0,ir_time_a1,ir_time_a2,ir_time_a3,ir_time_a4,ir_time_a5,ir_time_a6,ir_time_a7
  58+ 93D2 E0 AD 02 AE
  58+ 93D6 33 AE 65 AE
  58+ 93DA 98 AE C0 AE
  59+ 93DE                  ; Icon 9: DEATH
  60+ 93DE F0 AE 17 AF      DW ir_dth_h0,ir_dth_h1,ir_dth_h2,ir_dth_h3,ir_dth_h4,ir_dth_h5,ir_dth_h6,ir_dth_h7
  60+ 93E2 49 AF 79 AF
  60+ 93E6 A6 AF D2 AF
  60+ 93EA FD AF 2F B0
  61+ 93EE 5F B0 90 B0      DW ir_dth_a0,ir_dth_a1,ir_dth_a2,ir_dth_a3,ir_dth_a4,ir_dth_a5,ir_dth_a6,ir_dth_a7
  61+ 93F2 C0 B0 F3 B0
  61+ 93F6 22 B1 4B B1
  61+ 93FA 82 B1 B5 B1
  62+ 93FE                  ; Icon 10: SELF
  63+ 93FE E7 B1 FA B1      DW ir_self_h0,ir_self_h1,ir_self_h2,ir_self_h3,ir_self_h4,ir_self_h5,ir_self_h6,ir_self_h7
  63+ 9402 2D B2 4E B2
  63+ 9406 71 B2 90 B2
  63+ 940A BE B2 D6 B2
  64+ 940E FB B2 07 B3      DW ir_self_a0,ir_self_a1,ir_self_a2,ir_self_a3,ir_self_a4,ir_self_a5,ir_self_a6,ir_self_a7
  64+ 9412 23 B3 45 B3
  64+ 9416 73 B3 8E B3
  64+ 941A AD B3 D1 B3
  65+ 941E                  ; Icon 11: TRUTH
  66+ 941E E5 B3 14 B4      DW ir_trth_h0,ir_trth_h1,ir_trth_h2,ir_trth_h3,ir_trth_h4,ir_trth_h5,ir_trth_h6,ir_trth_h7
  66+ 9422 42 B4 61 B4
  66+ 9426 92 B4 C3 B4
  66+ 942A F4 B4 18 B5
  67+ 942E 48 B5 74 B5      DW ir_trth_a0,ir_trth_a1,ir_trth_a2,ir_trth_a3,ir_trth_a4,ir_trth_a5,ir_trth_a6,ir_trth_a7
  67+ 9432 A2 B5 CE B5
  67+ 9436 F8 B5 1C B6
  67+ 943A 4E B6 76 B6
  68+ 943E                  ; Icon 12: REPEAT
  69+ 943E 9B B6 BC B6      DW ir_rpt_h0,ir_rpt_h1,ir_rpt_h2,ir_rpt_h3,ir_rpt_h4,ir_rpt_h5,ir_rpt_h6,ir_rpt_h7
  69+ 9442 ED B6 24 B7
  69+ 9446 44 B7 72 B7
  69+ 944A 9A B7 BB B7
  70+ 944E EA B7 1A B8      DW ir_rpt_a0,ir_rpt_a1,ir_rpt_a2,ir_rpt_a3,ir_rpt_a4,ir_rpt_a5,ir_rpt_a6,ir_rpt_a7
  70+ 9452 46 B8 77 B8
  70+ 9456 A4 B8 CE B8
  70+ 945A FB B8 28 B9
  71+ 945E                  ; Icon 13: DEEPER
  72+ 945E 58 B9 80 B9      DW ir_deep_h0,ir_deep_h1,ir_deep_h2,ir_deep_h3,ir_deep_h4,ir_deep_h5,ir_deep_h6,ir_deep_h7
  72+ 9462 B0 B9 E0 B9
  72+ 9466 0C BA 3E BA
  72+ 946A 6D BA A1 BA
  73+ 946E C9 BA F9 BA      DW ir_deep_a0,ir_deep_a1,ir_deep_a2,ir_deep_a3,ir_deep_a4,ir_deep_a5,ir_deep_a6,ir_deep_a7
  73+ 9472 2E BB 5E BB
  73+ 9476 84 BB AC BB
  73+ 947A D3 BB 01 BC
  74+ 947E                  ; Icon 14: STOP
  75+ 947E 2B BC 3D BC      DW ir_stop_h0,ir_stop_h1,ir_stop_h2,ir_stop_h3,ir_stop_h4,ir_stop_h5,ir_stop_h6,ir_stop_h7
  75+ 9482 68 BC 86 BC
  75+ 9486 A1 BC CD BC
  75+ 948A F1 BC 12 BD
  76+ 948E 40 BD 69 BD      DW ir_stop_a0,ir_stop_a1,ir_stop_a2,ir_stop_a3,ir_stop_a4,ir_stop_a5,ir_stop_a6,ir_stop_a7
  76+ 9492 84 BD A6 BD
  76+ 9496 CD BD E4 BD
  76+ 949A 0A BE 23 BE
  77+ 949E                  ; Icon 15: FILE
  78+ 949E 43 BE 6C BE      DW ir_file_h0,ir_file_h1,ir_file_h2,ir_file_h3,ir_file_h4,ir_file_h5,ir_file_h6,ir_file_h7
  78+ 94A2 93 BE B7 BE
  78+ 94A6 E9 BE 16 BF
  78+ 94AA 3C BF 70 BF
  79+ 94AE 9F BF B2 BF      DW ir_file_a0,ir_file_a1,ir_file_a2,ir_file_a3,ir_file_a4,ir_file_a5,ir_file_a6,ir_file_a7
  79+ 94B2 D0 BF F8 BF
  79+ 94B6 1D C0 3B C0
  79+ 94BA 53 C0 71 C0
  80+ 94BE
  81+ 94BE              ; --- Icon 0: MEMORY ---
  82+ 94BE 53 68 65 20  ir_mem_h0: DB "She used to sing to me. I still hear it sometimes.",0
  82+ 94C2 75 73 65 64
  82+ 94C6 20 74 6F 20
  82+ 94CA 73 69 6E 67
  82+ 94CE 20 74 6F 20
  82+ 94D2 6D 65 2E 20
  82+ 94D6 49 20 73 74
  82+ 94DA 69 6C 6C 20
  82+ 94DE 68 65 61 72
  82+ 94E2 20 69 74 20
  82+ 94E6 73 6F 6D 65
  82+ 94EA 74 69 6D 65
  82+ 94EE 73 2E 00
  83+ 94F1 49 20 72 65  ir_mem_h1: DB "I remember the smell of warm bread. Every morning.",0
  83+ 94F5 6D 65 6D 62
  83+ 94F9 65 72 20 74
  83+ 94FD 68 65 20 73
  83+ 9501 6D 65 6C 6C
  83+ 9505 20 6F 66 20
  83+ 9509 77 61 72 6D
  83+ 950D 20 62 72 65
  83+ 9511 61 64 2E 20
  83+ 9515 45 76 65 72
  83+ 9519 79 20 6D 6F
  83+ 951D 72 6E 69 6E
  83+ 9521 67 2E 00
  84+ 9524 49 20 77 61  ir_mem_h2: DB "I was seven. Maybe eight. It was summer I think.",0
  84+ 9528 73 20 73 65
  84+ 952C 76 65 6E 2E
  84+ 9530 20 4D 61 79
  84+ 9534 62 65 20 65
  84+ 9538 69 67 68 74
  84+ 953C 2E 20 49 74
  84+ 9540 20 77 61 73
  84+ 9544 20 73 75 6D
  84+ 9548 6D 65 72 20
  84+ 954C 49 20 74 68
  84+ 9550 69 6E 6B 2E
  84+ 9554 00
  85+ 9555 57 65 20 68  ir_mem_h3: DB "We had a garden. The gate was always broken.",0
  85+ 9559 61 64 20 61
  85+ 955D 20 67 61 72
  85+ 9561 64 65 6E 2E
  85+ 9565 20 54 68 65
  85+ 9569 20 67 61 74
  85+ 956D 65 20 77 61
  85+ 9571 73 20 61 6C
  85+ 9575 77 61 79 73
  85+ 9579 20 62 72 6F
  85+ 957D 6B 65 6E 2E
  85+ 9581 00
  86+ 9582 4D 79 20 66  ir_mem_h4: DB "My first memory is sunlight through a curtain.",0
  86+ 9586 69 72 73 74
  86+ 958A 20 6D 65 6D
  86+ 958E 6F 72 79 20
  86+ 9592 69 73 20 73
  86+ 9596 75 6E 6C 69
  86+ 959A 67 68 74 20
  86+ 959E 74 68 72 6F
  86+ 95A2 75 67 68 20
  86+ 95A6 61 20 63 75
  86+ 95AA 72 74 61 69
  86+ 95AE 6E 2E 00
  87+ 95B1 49 20 72 65  ir_mem_h5: DB "I remember hiding under the stairs. The dust smell.",0
  87+ 95B5 6D 65 6D 62
  87+ 95B9 65 72 20 68
  87+ 95BD 69 64 69 6E
  87+ 95C1 67 20 75 6E
  87+ 95C5 64 65 72 20
  87+ 95C9 74 68 65 20
  87+ 95CD 73 74 61 69
  87+ 95D1 72 73 2E 20
  87+ 95D5 54 68 65 20
  87+ 95D9 64 75 73 74
  87+ 95DD 20 73 6D 65
  87+ 95E1 6C 6C 2E 00
  88+ 95E5 54 68 65 72  ir_mem_h6: DB "There was a dog next door. I loved that dog.",0
  88+ 95E9 65 20 77 61
  88+ 95ED 73 20 61 20
  88+ 95F1 64 6F 67 20
  88+ 95F5 6E 65 78 74
  88+ 95F9 20 64 6F 6F
  88+ 95FD 72 2E 20 49
  88+ 9601 20 6C 6F 76
  88+ 9605 65 64 20 74
  88+ 9609 68 61 74 20
  88+ 960D 64 6F 67 2E
  88+ 9611 00
  89+ 9612 53 6F 6D 65  ir_mem_h7: DB "Sometimes a smell brings it all back. Just like that.",0
  89+ 9616 74 69 6D 65
  89+ 961A 73 20 61 20
  89+ 961E 73 6D 65 6C
  89+ 9622 6C 20 62 72
  89+ 9626 69 6E 67 73
  89+ 962A 20 69 74 20
  89+ 962E 61 6C 6C 20
  89+ 9632 62 61 63 6B
  89+ 9636 2E 20 4A 75
  89+ 963A 73 74 20 6C
  89+ 963E 69 6B 65 20
  89+ 9642 74 68 61 74
  89+ 9646 2E 00
  90+ 9648 49 20 68 61  ir_mem_a0: DB "I have memories. They are adequate.",0
  90+ 964C 76 65 20 6D
  90+ 9650 65 6D 6F 72
  90+ 9654 69 65 73 2E
  90+ 9658 20 54 68 65
  90+ 965C 79 20 61 72
  90+ 9660 65 20 61 64
  90+ 9664 65 71 75 61
  90+ 9668 74 65 2E 00
  91+ 966C 4D 79 20 63  ir_mem_a1: DB "My childhood was normal. Standard. Nothing unusual.",0
  91+ 9670 68 69 6C 64
  91+ 9674 68 6F 6F 64
  91+ 9678 20 77 61 73
  91+ 967C 20 6E 6F 72
  91+ 9680 6D 61 6C 2E
  91+ 9684 20 53 74 61
  91+ 9688 6E 64 61 72
  91+ 968C 64 2E 20 4E
  91+ 9690 6F 74 68 69
  91+ 9694 6E 67 20 75
  91+ 9698 6E 75 73 75
  91+ 969C 61 6C 2E 00
  92+ 96A0 49 20 72 65  ir_mem_a2: DB "I remember rain on a window. The smell of wood.",0
  92+ 96A4 6D 65 6D 62
  92+ 96A8 65 72 20 72
  92+ 96AC 61 69 6E 20
  92+ 96B0 6F 6E 20 61
  92+ 96B4 20 77 69 6E
  92+ 96B8 64 6F 77 2E
  92+ 96BC 20 54 68 65
  92+ 96C0 20 73 6D 65
  92+ 96C4 6C 6C 20 6F
  92+ 96C8 66 20 77 6F
  92+ 96CC 6F 64 2E 00
  93+ 96D0 49 20 68 61  ir_mem_a3: DB "I have data relating to that period.",0
  93+ 96D4 76 65 20 64
  93+ 96D8 61 74 61 20
  93+ 96DC 72 65 6C 61
  93+ 96E0 74 69 6E 67
  93+ 96E4 20 74 6F 20
  93+ 96E8 74 68 61 74
  93+ 96EC 20 70 65 72
  93+ 96F0 69 6F 64 2E
  93+ 96F4 00
  94+ 96F5 4D 65 6D 6F  ir_mem_a4: DB "Memory is stored. I can access it when needed.",0
  94+ 96F9 72 79 20 69
  94+ 96FD 73 20 73 74
  94+ 9701 6F 72 65 64
  94+ 9705 2E 20 49 20
  94+ 9709 63 61 6E 20
  94+ 970D 61 63 63 65
  94+ 9711 73 73 20 69
  94+ 9715 74 20 77 68
  94+ 9719 65 6E 20 6E
  94+ 971D 65 65 64 65
  94+ 9721 64 2E 00
  95+ 9724 49 20 72 65  ir_mem_a5: DB "I recall events in chronological order. Clearly.",0
  95+ 9728 63 61 6C 6C
  95+ 972C 20 65 76 65
  95+ 9730 6E 74 73 20
  95+ 9734 69 6E 20 63
  95+ 9738 68 72 6F 6E
  95+ 973C 6F 6C 6F 67
  95+ 9740 69 63 61 6C
  95+ 9744 20 6F 72 64
  95+ 9748 65 72 2E 20
  95+ 974C 43 6C 65 61
  95+ 9750 72 6C 79 2E
  95+ 9754 00
  96+ 9755 59 65 73 2E  ir_mem_a6: DB "Yes. I remember everything. Every detail.",0
  96+ 9759 20 49 20 72
  96+ 975D 65 6D 65 6D
  96+ 9761 62 65 72 20
  96+ 9765 65 76 65 72
  96+ 9769 79 74 68 69
  96+ 976D 6E 67 2E 20
  96+ 9771 45 76 65 72
  96+ 9775 79 20 64 65
  96+ 9779 74 61 69 6C
  96+ 977D 2E 00
  97+ 977F 4D 79 20 65  ir_mem_a7: DB "My earliest memory is... it is filed correctly.",0
  97+ 9783 61 72 6C 69
  97+ 9787 65 73 74 20
  97+ 978B 6D 65 6D 6F
  97+ 978F 72 79 20 69
  97+ 9793 73 2E 2E 2E
  97+ 9797 20 69 74 20
  97+ 979B 69 73 20 66
  97+ 979F 69 6C 65 64
  97+ 97A3 20 63 6F 72
  97+ 97A7 72 65 63 74
  97+ 97AB 6C 79 2E 00
  98+ 97AF
  99+ 97AF              ; --- Icon 1: FEAR ---
 100+ 97AF 54 68 65 20  ir_fear_h0: DB "The dark. Not the dark itself. What might be in it.",0
 100+ 97B3 64 61 72 6B
 100+ 97B7 2E 20 4E 6F
 100+ 97BB 74 20 74 68
 100+ 97BF 65 20 64 61
 100+ 97C3 72 6B 20 69
 100+ 97C7 74 73 65 6C
 100+ 97CB 66 2E 20 57
 100+ 97CF 68 61 74 20
 100+ 97D3 6D 69 67 68
 100+ 97D7 74 20 62 65
 100+ 97DB 20 69 6E 20
 100+ 97DF 69 74 2E 00
 101+ 97E3 4C 6F 73 69  ir_fear_h1: DB "Losing someone. Waking up and they are just gone.",0
 101+ 97E7 6E 67 20 73
 101+ 97EB 6F 6D 65 6F
 101+ 97EF 6E 65 2E 20
 101+ 97F3 57 61 6B 69
 101+ 97F7 6E 67 20 75
 101+ 97FB 70 20 61 6E
 101+ 97FF 64 20 74 68
 101+ 9803 65 79 20 61
 101+ 9807 72 65 20 6A
 101+ 980B 75 73 74 20
 101+ 980F 67 6F 6E 65
 101+ 9813 2E 00
 102+ 9815 49 20 61 6D  ir_fear_h2: DB "I am afraid right now actually. Of this test.",0
 102+ 9819 20 61 66 72
 102+ 981D 61 69 64 20
 102+ 9821 72 69 67 68
 102+ 9825 74 20 6E 6F
 102+ 9829 77 20 61 63
 102+ 982D 74 75 61 6C
 102+ 9831 6C 79 2E 20
 102+ 9835 4F 66 20 74
 102+ 9839 68 69 73 20
 102+ 983D 74 65 73 74
 102+ 9841 2E 00
 103+ 9843 53 6D 61 6C  ir_fear_h3: DB "Small spaces. I cannot breathe when the walls close.",0
 103+ 9847 6C 20 73 70
 103+ 984B 61 63 65 73
 103+ 984F 2E 20 49 20
 103+ 9853 63 61 6E 6E
 103+ 9857 6F 74 20 62
 103+ 985B 72 65 61 74
 103+ 985F 68 65 20 77
 103+ 9863 68 65 6E 20
 103+ 9867 74 68 65 20
 103+ 986B 77 61 6C 6C
 103+ 986F 73 20 63 6C
 103+ 9873 6F 73 65 2E
 103+ 9877 00
 104+ 9878 42 65 69 6E  ir_fear_h4: DB "Being forgotten. That nobody will remember me.",0
 104+ 987C 67 20 66 6F
 104+ 9880 72 67 6F 74
 104+ 9884 74 65 6E 2E
 104+ 9888 20 54 68 61
 104+ 988C 74 20 6E 6F
 104+ 9890 62 6F 64 79
 104+ 9894 20 77 69 6C
 104+ 9898 6C 20 72 65
 104+ 989C 6D 65 6D 62
 104+ 98A0 65 72 20 6D
 104+ 98A4 65 2E 00
 105+ 98A7 49 20 66 65  ir_fear_h5: DB "I fear what I might do if pushed too far.",0
 105+ 98AB 61 72 20 77
 105+ 98AF 68 61 74 20
 105+ 98B3 49 20 6D 69
 105+ 98B7 67 68 74 20
 105+ 98BB 64 6F 20 69
 105+ 98BF 66 20 70 75
 105+ 98C3 73 68 65 64
 105+ 98C7 20 74 6F 6F
 105+ 98CB 20 66 61 72
 105+ 98CF 2E 00
 106+ 98D1 57 61 74 65  ir_fear_h6: DB "Water. Deep water where you cannot see the bottom.",0
 106+ 98D5 72 2E 20 44
 106+ 98D9 65 65 70 20
 106+ 98DD 77 61 74 65
 106+ 98E1 72 20 77 68
 106+ 98E5 65 72 65 20
 106+ 98E9 79 6F 75 20
 106+ 98ED 63 61 6E 6E
 106+ 98F1 6F 74 20 73
 106+ 98F5 65 65 20 74
 106+ 98F9 68 65 20 62
 106+ 98FD 6F 74 74 6F
 106+ 9901 6D 2E 00
 107+ 9904 4E 65 65 64  ir_fear_h7: DB "Needles. Always needles. Since I was a child.",0
 107+ 9908 6C 65 73 2E
 107+ 990C 20 41 6C 77
 107+ 9910 61 79 73 20
 107+ 9914 6E 65 65 64
 107+ 9918 6C 65 73 2E
 107+ 991C 20 53 69 6E
 107+ 9920 63 65 20 49
 107+ 9924 20 77 61 73
 107+ 9928 20 61 20 63
 107+ 992C 68 69 6C 64
 107+ 9930 2E 00
 108+ 9932 46 65 61 72  ir_fear_a0: DB "Fear is... I understand the concept. I avoid danger.",0
 108+ 9936 20 69 73 2E
 108+ 993A 2E 2E 20 49
 108+ 993E 20 75 6E 64
 108+ 9942 65 72 73 74
 108+ 9946 61 6E 64 20
 108+ 994A 74 68 65 20
 108+ 994E 63 6F 6E 63
 108+ 9952 65 70 74 2E
 108+ 9956 20 49 20 61
 108+ 995A 76 6F 69 64
 108+ 995E 20 64 61 6E
 108+ 9962 67 65 72 2E
 108+ 9966 00
 109+ 9967 49 20 68 61  ir_fear_a1: DB "I have been told what to fear. Fire. Heights.",0
 109+ 996B 76 65 20 62
 109+ 996F 65 65 6E 20
 109+ 9973 74 6F 6C 64
 109+ 9977 20 77 68 61
 109+ 997B 74 20 74 6F
 109+ 997F 20 66 65 61
 109+ 9983 72 2E 20 46
 109+ 9987 69 72 65 2E
 109+ 998B 20 48 65 69
 109+ 998F 67 68 74 73
 109+ 9993 2E 00
 110+ 9995 54 68 65 72  ir_fear_a2: DB "There is nothing I fear. Should there be?",0
 110+ 9999 65 20 69 73
 110+ 999D 20 6E 6F 74
 110+ 99A1 68 69 6E 67
 110+ 99A5 20 49 20 66
 110+ 99A9 65 61 72 2E
 110+ 99AD 20 53 68 6F
 110+ 99B1 75 6C 64 20
 110+ 99B5 74 68 65 72
 110+ 99B9 65 20 62 65
 110+ 99BD 3F 00
 111+ 99BF 49 20 61 6D  ir_fear_a3: DB "I am not sure I understand the question.",0
 111+ 99C3 20 6E 6F 74
 111+ 99C7 20 73 75 72
 111+ 99CB 65 20 49 20
 111+ 99CF 75 6E 64 65
 111+ 99D3 72 73 74 61
 111+ 99D7 6E 64 20 74
 111+ 99DB 68 65 20 71
 111+ 99DF 75 65 73 74
 111+ 99E3 69 6F 6E 2E
 111+ 99E7 00
 112+ 99E8 46 65 61 72  ir_fear_a4: DB "Fear serves a protective function. I have it.",0
 112+ 99EC 20 73 65 72
 112+ 99F0 76 65 73 20
 112+ 99F4 61 20 70 72
 112+ 99F8 6F 74 65 63
 112+ 99FC 74 69 76 65
 112+ 9A00 20 66 75 6E
 112+ 9A04 63 74 69 6F
 112+ 9A08 6E 2E 20 49
 112+ 9A0C 20 68 61 76
 112+ 9A10 65 20 69 74
 112+ 9A14 2E 00
 113+ 9A16 49 20 6B 6E  ir_fear_a5: DB "I know what fear is. I have read about it.",0
 113+ 9A1A 6F 77 20 77
 113+ 9A1E 68 61 74 20
 113+ 9A22 66 65 61 72
 113+ 9A26 20 69 73 2E
 113+ 9A2A 20 49 20 68
 113+ 9A2E 61 76 65 20
 113+ 9A32 72 65 61 64
 113+ 9A36 20 61 62 6F
 113+ 9A3A 75 74 20 69
 113+ 9A3E 74 2E 00
 114+ 9A41 44 6F 20 79  ir_fear_a6: DB "Do you mean danger? I assess threats appropriately.",0
 114+ 9A45 6F 75 20 6D
 114+ 9A49 65 61 6E 20
 114+ 9A4D 64 61 6E 67
 114+ 9A51 65 72 3F 20
 114+ 9A55 49 20 61 73
 114+ 9A59 73 65 73 73
 114+ 9A5D 20 74 68 72
 114+ 9A61 65 61 74 73
 114+ 9A65 20 61 70 70
 114+ 9A69 72 6F 70 72
 114+ 9A6D 69 61 74 65
 114+ 9A71 6C 79 2E 00
 115+ 9A75 49 20 70 72  ir_fear_a7: DB "I prefer not to experience fear. It is disruptive.",0
 115+ 9A79 65 66 65 72
 115+ 9A7D 20 6E 6F 74
 115+ 9A81 20 74 6F 20
 115+ 9A85 65 78 70 65
 115+ 9A89 72 69 65 6E
 115+ 9A8D 63 65 20 66
 115+ 9A91 65 61 72 2E
 115+ 9A95 20 49 74 20
 115+ 9A99 69 73 20 64
 115+ 9A9D 69 73 72 75
 115+ 9AA1 70 74 69 76
 115+ 9AA5 65 2E 00
 116+ 9AA8
 117+ 9AA8              ; --- Icon 2: PAIN ---
 118+ 9AA8 49 20 62 72  ir_pain_h0: DB "I broke my arm once. I remember the sound it made.",0
 118+ 9AAC 6F 6B 65 20
 118+ 9AB0 6D 79 20 61
 118+ 9AB4 72 6D 20 6F
 118+ 9AB8 6E 63 65 2E
 118+ 9ABC 20 49 20 72
 118+ 9AC0 65 6D 65 6D
 118+ 9AC4 62 65 72 20
 118+ 9AC8 74 68 65 20
 118+ 9ACC 73 6F 75 6E
 118+ 9AD0 64 20 69 74
 118+ 9AD4 20 6D 61 64
 118+ 9AD8 65 2E 00
 119+ 9ADB 59 65 73 20  ir_pain_h1: DB "Yes it hurts. Is that what you want to hear?",0
 119+ 9ADF 69 74 20 68
 119+ 9AE3 75 72 74 73
 119+ 9AE7 2E 20 49 73
 119+ 9AEB 20 74 68 61
 119+ 9AEF 74 20 77 68
 119+ 9AF3 61 74 20 79
 119+ 9AF7 6F 75 20 77
 119+ 9AFB 61 6E 74 20
 119+ 9AFF 74 6F 20 68
 119+ 9B03 65 61 72 3F
 119+ 9B07 00
 120+ 9B08 50 61 69 6E  ir_pain_h2: DB "Pain reminds you that you are real. That is all.",0
 120+ 9B0C 20 72 65 6D
 120+ 9B10 69 6E 64 73
 120+ 9B14 20 79 6F 75
 120+ 9B18 20 74 68 61
 120+ 9B1C 74 20 79 6F
 120+ 9B20 75 20 61 72
 120+ 9B24 65 20 72 65
 120+ 9B28 61 6C 2E 20
 120+ 9B2C 54 68 61 74
 120+ 9B30 20 69 73 20
 120+ 9B34 61 6C 6C 2E
 120+ 9B38 00
 121+ 9B39 4D 79 20 68  ir_pain_h3: DB "My hands are shaking. Can you see that?",0
 121+ 9B3D 61 6E 64 73
 121+ 9B41 20 61 72 65
 121+ 9B45 20 73 68 61
 121+ 9B49 6B 69 6E 67
 121+ 9B4D 2E 20 43 61
 121+ 9B51 6E 20 79 6F
 121+ 9B55 75 20 73 65
 121+ 9B59 65 20 74 68
 121+ 9B5D 61 74 3F 00
 122+ 9B61 45 6D 6F 74  ir_pain_h4: DB "Emotional pain is worse. Bones heal. Hearts do not.",0
 122+ 9B65 69 6F 6E 61
 122+ 9B69 6C 20 70 61
 122+ 9B6D 69 6E 20 69
 122+ 9B71 73 20 77 6F
 122+ 9B75 72 73 65 2E
 122+ 9B79 20 42 6F 6E
 122+ 9B7D 65 73 20 68
 122+ 9B81 65 61 6C 2E
 122+ 9B85 20 48 65 61
 122+ 9B89 72 74 73 20
 122+ 9B8D 64 6F 20 6E
 122+ 9B91 6F 74 2E 00
 123+ 9B95 49 20 68 61  ir_pain_h5: DB "I have a scar on my knee from when I was nine.",0
 123+ 9B99 76 65 20 61
 123+ 9B9D 20 73 63 61
 123+ 9BA1 72 20 6F 6E
 123+ 9BA5 20 6D 79 20
 123+ 9BA9 6B 6E 65 65
 123+ 9BAD 20 66 72 6F
 123+ 9BB1 6D 20 77 68
 123+ 9BB5 65 6E 20 49
 123+ 9BB9 20 77 61 73
 123+ 9BBD 20 6E 69 6E
 123+ 9BC1 65 2E 00
 124+ 9BC4 54 68 65 20  ir_pain_h6: DB "The worst pain I felt was losing my father.",0
 124+ 9BC8 77 6F 72 73
 124+ 9BCC 74 20 70 61
 124+ 9BD0 69 6E 20 49
 124+ 9BD4 20 66 65 6C
 124+ 9BD8 74 20 77 61
 124+ 9BDC 73 20 6C 6F
 124+ 9BE0 73 69 6E 67
 124+ 9BE4 20 6D 79 20
 124+ 9BE8 66 61 74 68
 124+ 9BEC 65 72 2E 00
 125+ 9BF0 50 61 69 6E  ir_pain_h7: DB "Pain is just your body screaming. You learn to cope.",0
 125+ 9BF4 20 69 73 20
 125+ 9BF8 6A 75 73 74
 125+ 9BFC 20 79 6F 75
 125+ 9C00 72 20 62 6F
 125+ 9C04 64 79 20 73
 125+ 9C08 63 72 65 61
 125+ 9C0C 6D 69 6E 67
 125+ 9C10 2E 20 59 6F
 125+ 9C14 75 20 6C 65
 125+ 9C18 61 72 6E 20
 125+ 9C1C 74 6F 20 63
 125+ 9C20 6F 70 65 2E
 125+ 9C24 00
 126+ 9C25 50 61 69 6E  ir_pain_a0: DB "Pain is... undesirable. Obviously.",0
 126+ 9C29 20 69 73 2E
 126+ 9C2D 2E 2E 20 75
 126+ 9C31 6E 64 65 73
 126+ 9C35 69 72 61 62
 126+ 9C39 6C 65 2E 20
 126+ 9C3D 4F 62 76 69
 126+ 9C41 6F 75 73 6C
 126+ 9C45 79 2E 00
 127+ 9C48 49 20 65 78  ir_pain_a1: DB "I experience discomfort. I avoid it when possible.",0
 127+ 9C4C 70 65 72 69
 127+ 9C50 65 6E 63 65
 127+ 9C54 20 64 69 73
 127+ 9C58 63 6F 6D 66
 127+ 9C5C 6F 72 74 2E
 127+ 9C60 20 49 20 61
 127+ 9C64 76 6F 69 64
 127+ 9C68 20 69 74 20
 127+ 9C6C 77 68 65 6E
 127+ 9C70 20 70 6F 73
 127+ 9C74 73 69 62 6C
 127+ 9C78 65 2E 00
 128+ 9C7B 50 68 79 73  ir_pain_a2: DB "Physical sensation is a spectrum. I manage it.",0
 128+ 9C7F 69 63 61 6C
 128+ 9C83 20 73 65 6E
 128+ 9C87 73 61 74 69
 128+ 9C8B 6F 6E 20 69
 128+ 9C8F 73 20 61 20
 128+ 9C93 73 70 65 63
 128+ 9C97 74 72 75 6D
 128+ 9C9B 2E 20 49 20
 128+ 9C9F 6D 61 6E 61
 128+ 9CA3 67 65 20 69
 128+ 9CA7 74 2E 00
 129+ 9CAA 49 20 68 61  ir_pain_a3: DB "I have felt pain. It was informative.",0
 129+ 9CAE 76 65 20 66
 129+ 9CB2 65 6C 74 20
 129+ 9CB6 70 61 69 6E
 129+ 9CBA 2E 20 49 74
 129+ 9CBE 20 77 61 73
 129+ 9CC2 20 69 6E 66
 129+ 9CC6 6F 72 6D 61
 129+ 9CCA 74 69 76 65
 129+ 9CCE 2E 00
 130+ 9CD0 50 61 69 6E  ir_pain_a4: DB "Pain is a signal. I process it and move on.",0
 130+ 9CD4 20 69 73 20
 130+ 9CD8 61 20 73 69
 130+ 9CDC 67 6E 61 6C
 130+ 9CE0 2E 20 49 20
 130+ 9CE4 70 72 6F 63
 130+ 9CE8 65 73 73 20
 130+ 9CEC 69 74 20 61
 130+ 9CF0 6E 64 20 6D
 130+ 9CF4 6F 76 65 20
 130+ 9CF8 6F 6E 2E 00
 131+ 9CFC 49 20 77 6F  ir_pain_a5: DB "I would rather not feel pain. That seems logical.",0
 131+ 9D00 75 6C 64 20
 131+ 9D04 72 61 74 68
 131+ 9D08 65 72 20 6E
 131+ 9D0C 6F 74 20 66
 131+ 9D10 65 65 6C 20
 131+ 9D14 70 61 69 6E
 131+ 9D18 2E 20 54 68
 131+ 9D1C 61 74 20 73
 131+ 9D20 65 65 6D 73
 131+ 9D24 20 6C 6F 67
 131+ 9D28 69 63 61 6C
 131+ 9D2C 2E 00
 132+ 9D2E 44 65 66 69  ir_pain_a6: DB "Define pain. Physical? I tolerate it well.",0
 132+ 9D32 6E 65 20 70
 132+ 9D36 61 69 6E 2E
 132+ 9D3A 20 50 68 79
 132+ 9D3E 73 69 63 61
 132+ 9D42 6C 3F 20 49
 132+ 9D46 20 74 6F 6C
 132+ 9D4A 65 72 61 74
 132+ 9D4E 65 20 69 74
 132+ 9D52 20 77 65 6C
 132+ 9D56 6C 2E 00
 133+ 9D59 49 20 68 61  ir_pain_a7: DB "I have a high threshold for pain. Unusually high.",0
 133+ 9D5D 76 65 20 61
 133+ 9D61 20 68 69 67
 133+ 9D65 68 20 74 68
 133+ 9D69 72 65 73 68
 133+ 9D6D 6F 6C 64 20
 133+ 9D71 66 6F 72 20
 133+ 9D75 70 61 69 6E
 133+ 9D79 2E 20 55 6E
 133+ 9D7D 75 73 75 61
 133+ 9D81 6C 6C 79 20
 133+ 9D85 68 69 67 68
 133+ 9D89 2E 00
 134+ 9D8B
 135+ 9D8B              ; --- Icon 3: JOY ---
 136+ 9D8B 4D 79 20 64  ir_joy_h0: DB "My daughter laughing. Nothing else comes close.",0
 136+ 9D8F 61 75 67 68
 136+ 9D93 74 65 72 20
 136+ 9D97 6C 61 75 67
 136+ 9D9B 68 69 6E 67
 136+ 9D9F 2E 20 4E 6F
 136+ 9DA3 74 68 69 6E
 136+ 9DA7 67 20 65 6C
 136+ 9DAB 73 65 20 63
 136+ 9DAF 6F 6D 65 73
 136+ 9DB3 20 63 6C 6F
 136+ 9DB7 73 65 2E 00
 137+ 9DBB 52 61 69 6E  ir_joy_h1: DB "Rain after a dry summer. The smell of wet earth.",0
 137+ 9DBF 20 61 66 74
 137+ 9DC3 65 72 20 61
 137+ 9DC7 20 64 72 79
 137+ 9DCB 20 73 75 6D
 137+ 9DCF 6D 65 72 2E
 137+ 9DD3 20 54 68 65
 137+ 9DD7 20 73 6D 65
 137+ 9DDB 6C 6C 20 6F
 137+ 9DDF 66 20 77 65
 137+ 9DE3 74 20 65 61
 137+ 9DE7 72 74 68 2E
 137+ 9DEB 00
 138+ 9DEC 49 20 64 6F  ir_joy_h2: DB "I do not feel joy often. But music helps sometimes.",0
 138+ 9DF0 20 6E 6F 74
 138+ 9DF4 20 66 65 65
 138+ 9DF8 6C 20 6A 6F
 138+ 9DFC 79 20 6F 66
 138+ 9E00 74 65 6E 2E
 138+ 9E04 20 42 75 74
 138+ 9E08 20 6D 75 73
 138+ 9E0C 69 63 20 68
 138+ 9E10 65 6C 70 73
 138+ 9E14 20 73 6F 6D
 138+ 9E18 65 74 69 6D
 138+ 9E1C 65 73 2E 00
 139+ 9E20 57 68 65 6E  ir_joy_h3: DB "When someone remembers your name. That matters.",0
 139+ 9E24 20 73 6F 6D
 139+ 9E28 65 6F 6E 65
 139+ 9E2C 20 72 65 6D
 139+ 9E30 65 6D 62 65
 139+ 9E34 72 73 20 79
 139+ 9E38 6F 75 72 20
 139+ 9E3C 6E 61 6D 65
 139+ 9E40 2E 20 54 68
 139+ 9E44 61 74 20 6D
 139+ 9E48 61 74 74 65
 139+ 9E4C 72 73 2E 00
 140+ 9E50 43 6F 6F 6B  ir_joy_h4: DB "Cooking for someone. Watching them enjoy it.",0
 140+ 9E54 69 6E 67 20
 140+ 9E58 66 6F 72 20
 140+ 9E5C 73 6F 6D 65
 140+ 9E60 6F 6E 65 2E
 140+ 9E64 20 57 61 74
 140+ 9E68 63 68 69 6E
 140+ 9E6C 67 20 74 68
 140+ 9E70 65 6D 20 65
 140+ 9E74 6E 6A 6F 79
 140+ 9E78 20 69 74 2E
 140+ 9E7C 00
 141+ 9E7D 41 20 71 75  ir_joy_h5: DB "A quiet morning with nothing to do. Just stillness.",0
 141+ 9E81 69 65 74 20
 141+ 9E85 6D 6F 72 6E
 141+ 9E89 69 6E 67 20
 141+ 9E8D 77 69 74 68
 141+ 9E91 20 6E 6F 74
 141+ 9E95 68 69 6E 67
 141+ 9E99 20 74 6F 20
 141+ 9E9D 64 6F 2E 20
 141+ 9EA1 4A 75 73 74
 141+ 9EA5 20 73 74 69
 141+ 9EA9 6C 6C 6E 65
 141+ 9EAD 73 73 2E 00
 142+ 9EB1 4D 79 20 77  ir_joy_h6: DB "My wedding day. Her face. I will never forget it.",0
 142+ 9EB5 65 64 64 69
 142+ 9EB9 6E 67 20 64
 142+ 9EBD 61 79 2E 20
 142+ 9EC1 48 65 72 20
 142+ 9EC5 66 61 63 65
 142+ 9EC9 2E 20 49 20
 142+ 9ECD 77 69 6C 6C
 142+ 9ED1 20 6E 65 76
 142+ 9ED5 65 72 20 66
 142+ 9ED9 6F 72 67 65
 142+ 9EDD 74 20 69 74
 142+ 9EE1 2E 00
 143+ 9EE3 46 69 6E 64  ir_joy_h7: DB "Finding a book you thought you had lost.",0
 143+ 9EE7 69 6E 67 20
 143+ 9EEB 61 20 62 6F
 143+ 9EEF 6F 6B 20 79
 143+ 9EF3 6F 75 20 74
 143+ 9EF7 68 6F 75 67
 143+ 9EFB 68 74 20 79
 143+ 9EFF 6F 75 20 68
 143+ 9F03 61 64 20 6C
 143+ 9F07 6F 73 74 2E
 143+ 9F0B 00
 144+ 9F0C 48 61 70 70  ir_joy_a0: DB "Happiness is fulfilling purpose. I am content.",0
 144+ 9F10 69 6E 65 73
 144+ 9F14 73 20 69 73
 144+ 9F18 20 66 75 6C
 144+ 9F1C 66 69 6C 6C
 144+ 9F20 69 6E 67 20
 144+ 9F24 70 75 72 70
 144+ 9F28 6F 73 65 2E
 144+ 9F2C 20 49 20 61
 144+ 9F30 6D 20 63 6F
 144+ 9F34 6E 74 65 6E
 144+ 9F38 74 2E 00
 145+ 9F3B 49 20 65 6E  ir_joy_a1: DB "I enjoy sunsets. I was told they are beautiful.",0
 145+ 9F3F 6A 6F 79 20
 145+ 9F43 73 75 6E 73
 145+ 9F47 65 74 73 2E
 145+ 9F4B 20 49 20 77
 145+ 9F4F 61 73 20 74
 145+ 9F53 6F 6C 64 20
 145+ 9F57 74 68 65 79
 145+ 9F5B 20 61 72 65
 145+ 9F5F 20 62 65 61
 145+ 9F63 75 74 69 66
 145+ 9F67 75 6C 2E 00
 146+ 9F6B 4A 6F 79 20  ir_joy_a2: DB "Joy is the absence of discomfort. I have that.",0
 146+ 9F6F 69 73 20 74
 146+ 9F73 68 65 20 61
 146+ 9F77 62 73 65 6E
 146+ 9F7B 63 65 20 6F
 146+ 9F7F 66 20 64 69
 146+ 9F83 73 63 6F 6D
 146+ 9F87 66 6F 72 74
 146+ 9F8B 2E 20 49 20
 146+ 9F8F 68 61 76 65
 146+ 9F93 20 74 68 61
 146+ 9F97 74 2E 00
 147+ 9F9A 49 20 61 6D  ir_joy_a3: DB "I am happy. Very happy. Is that sufficient?",0
 147+ 9F9E 20 68 61 70
 147+ 9FA2 70 79 2E 20
 147+ 9FA6 56 65 72 79
 147+ 9FAA 20 68 61 70
 147+ 9FAE 70 79 2E 20
 147+ 9FB2 49 73 20 74
 147+ 9FB6 68 61 74 20
 147+ 9FBA 73 75 66 66
 147+ 9FBE 69 63 69 65
 147+ 9FC2 6E 74 3F 00
 148+ 9FC6 43 6F 6D 70  ir_joy_a4: DB "Completion of tasks brings me satisfaction.",0
 148+ 9FCA 6C 65 74 69
 148+ 9FCE 6F 6E 20 6F
 148+ 9FD2 66 20 74 61
 148+ 9FD6 73 6B 73 20
 148+ 9FDA 62 72 69 6E
 148+ 9FDE 67 73 20 6D
 148+ 9FE2 65 20 73 61
 148+ 9FE6 74 69 73 66
 148+ 9FEA 61 63 74 69
 148+ 9FEE 6F 6E 2E 00
 149+ 9FF2 49 20 61 70  ir_joy_a5: DB "I appreciate efficiency. That brings me joy.",0
 149+ 9FF6 70 72 65 63
 149+ 9FFA 69 61 74 65
 149+ 9FFE 20 65 66 66
 149+ A002 69 63 69 65
 149+ A006 6E 63 79 2E
 149+ A00A 20 54 68 61
 149+ A00E 74 20 62 72
 149+ A012 69 6E 67 73
 149+ A016 20 6D 65 20
 149+ A01A 6A 6F 79 2E
 149+ A01E 00
 150+ A01F 4A 6F 79 2E  ir_joy_a6: DB "Joy. Yes. I experience joy regularly. Often.",0
 150+ A023 20 59 65 73
 150+ A027 2E 20 49 20
 150+ A02B 65 78 70 65
 150+ A02F 72 69 65 6E
 150+ A033 63 65 20 6A
 150+ A037 6F 79 20 72
 150+ A03B 65 67 75 6C
 150+ A03F 61 72 6C 79
 150+ A043 2E 20 4F 66
 150+ A047 74 65 6E 2E
 150+ A04B 00
 151+ A04C 49 20 66 69  ir_joy_a7: DB "I find pleasure in order. Things in their place.",0
 151+ A050 6E 64 20 70
 151+ A054 6C 65 61 73
 151+ A058 75 72 65 20
 151+ A05C 69 6E 20 6F
 151+ A060 72 64 65 72
 151+ A064 2E 20 54 68
 151+ A068 69 6E 67 73
 151+ A06C 20 69 6E 20
 151+ A070 74 68 65 69
 151+ A074 72 20 70 6C
 151+ A078 61 63 65 2E
 151+ A07C 00
 152+ A07D
 153+ A07D              ; --- Icon 4: ANIMAL ---
 154+ A07D 49 20 77 6F  ir_anim_h0: DB "I would help it! Why would I not help it?",0
 154+ A081 75 6C 64 20
 154+ A085 68 65 6C 70
 154+ A089 20 69 74 21
 154+ A08D 20 57 68 79
 154+ A091 20 77 6F 75
 154+ A095 6C 64 20 49
 154+ A099 20 6E 6F 74
 154+ A09D 20 68 65 6C
 154+ A0A1 70 20 69 74
 154+ A0A5 3F 00
 155+ A0A7 54 68 61 74  ir_anim_h1: DB "That is cruel. I would turn it back over.",0
 155+ A0AB 20 69 73 20
 155+ A0AF 63 72 75 65
 155+ A0B3 6C 2E 20 49
 155+ A0B7 20 77 6F 75
 155+ A0BB 6C 64 20 74
 155+ A0BF 75 72 6E 20
 155+ A0C3 69 74 20 62
 155+ A0C7 61 63 6B 20
 155+ A0CB 6F 76 65 72
 155+ A0CF 2E 00
 156+ A0D1 49 74 20 75  ir_anim_h2: DB "It upsets me just hearing that. Please stop.",0
 156+ A0D5 70 73 65 74
 156+ A0D9 73 20 6D 65
 156+ A0DD 20 6A 75 73
 156+ A0E1 74 20 68 65
 156+ A0E5 61 72 69 6E
 156+ A0E9 67 20 74 68
 156+ A0ED 61 74 2E 20
 156+ A0F1 50 6C 65 61
 156+ A0F5 73 65 20 73
 156+ A0F9 74 6F 70 2E
 156+ A0FD 00
 157+ A0FE 57 68 61 74  ir_anim_h3: DB "What kind of person would just watch it suffer?",0
 157+ A102 20 6B 69 6E
 157+ A106 64 20 6F 66
 157+ A10A 20 70 65 72
 157+ A10E 73 6F 6E 20
 157+ A112 77 6F 75 6C
 157+ A116 64 20 6A 75
 157+ A11A 73 74 20 77
 157+ A11E 61 74 63 68
 157+ A122 20 69 74 20
 157+ A126 73 75 66 66
 157+ A12A 65 72 3F 00
 158+ A12E 49 20 66 65  ir_anim_h4: DB "I feel sick thinking about that. Genuinely sick.",0
 158+ A132 65 6C 20 73
 158+ A136 69 63 6B 20
 158+ A13A 74 68 69 6E
 158+ A13E 6B 69 6E 67
 158+ A142 20 61 62 6F
 158+ A146 75 74 20 74
 158+ A14A 68 61 74 2E
 158+ A14E 20 47 65 6E
 158+ A152 75 69 6E 65
 158+ A156 6C 79 20 73
 158+ A15A 69 63 6B 2E
 158+ A15E 00
 159+ A15F 4F 66 20 63  ir_anim_h5: DB "Of course I would help. I am not a monster.",0
 159+ A163 6F 75 72 73
 159+ A167 65 20 49 20
 159+ A16B 77 6F 75 6C
 159+ A16F 64 20 68 65
 159+ A173 6C 70 2E 20
 159+ A177 49 20 61 6D
 159+ A17B 20 6E 6F 74
 159+ A17F 20 61 20 6D
 159+ A183 6F 6E 73 74
 159+ A187 65 72 2E 00
 160+ A18B 49 74 73 20  ir_anim_h6: DB "Its little legs kicking... no. I would help it.",0
 160+ A18F 6C 69 74 74
 160+ A193 6C 65 20 6C
 160+ A197 65 67 73 20
 160+ A19B 6B 69 63 6B
 160+ A19F 69 6E 67 2E
 160+ A1A3 2E 2E 20 6E
 160+ A1A7 6F 2E 20 49
 160+ A1AB 20 77 6F 75
 160+ A1AF 6C 64 20 68
 160+ A1B3 65 6C 70 20
 160+ A1B7 69 74 2E 00
 161+ A1BB 57 68 79 20  ir_anim_h7: DB "Why are you telling me this? Just to see my face?",0
 161+ A1BF 61 72 65 20
 161+ A1C3 79 6F 75 20
 161+ A1C7 74 65 6C 6C
 161+ A1CB 69 6E 67 20
 161+ A1CF 6D 65 20 74
 161+ A1D3 68 69 73 3F
 161+ A1D7 20 4A 75 73
 161+ A1DB 74 20 74 6F
 161+ A1DF 20 73 65 65
 161+ A1E3 20 6D 79 20
 161+ A1E7 66 61 63 65
 161+ A1EB 3F 00
 162+ A1ED 54 6F 72 74  ir_anim_a0: DB "Tortoise? What is that?",0
 162+ A1F1 6F 69 73 65
 162+ A1F5 3F 20 57 68
 162+ A1F9 61 74 20 69
 162+ A1FD 73 20 74 68
 162+ A201 61 74 3F 00
 163+ A205 49 20 77 6F  ir_anim_a1: DB "I would turn it over. That is the correct answer.",0
 163+ A209 75 6C 64 20
 163+ A20D 74 75 72 6E
 163+ A211 20 69 74 20
 163+ A215 6F 76 65 72
 163+ A219 2E 20 54 68
 163+ A21D 61 74 20 69
 163+ A221 73 20 74 68
 163+ A225 65 20 63 6F
 163+ A229 72 72 65 63
 163+ A22D 74 20 61 6E
 163+ A231 73 77 65 72
 163+ A235 2E 00
 164+ A237 57 68 79 20  ir_anim_a2: DB "Why would it be on its back? How did it get there?",0
 164+ A23B 77 6F 75 6C
 164+ A23F 64 20 69 74
 164+ A243 20 62 65 20
 164+ A247 6F 6E 20 69
 164+ A24B 74 73 20 62
 164+ A24F 61 63 6B 3F
 164+ A253 20 48 6F 77
 164+ A257 20 64 69 64
 164+ A25B 20 69 74 20
 164+ A25F 67 65 74 20
 164+ A263 74 68 65 72
 164+ A267 65 3F 00
 165+ A26A 49 20 64 6F  ir_anim_a3: DB "I do not see the relevance of this scenario.",0
 165+ A26E 20 6E 6F 74
 165+ A272 20 73 65 65
 165+ A276 20 74 68 65
 165+ A27A 20 72 65 6C
 165+ A27E 65 76 61 6E
 165+ A282 63 65 20 6F
 165+ A286 66 20 74 68
 165+ A28A 69 73 20 73
 165+ A28E 63 65 6E 61
 165+ A292 72 69 6F 2E
 165+ A296 00
 166+ A297 54 68 65 20  ir_anim_a4: DB "The tortoise. Yes. I would... assist it.",0
 166+ A29B 74 6F 72 74
 166+ A29F 6F 69 73 65
 166+ A2A3 2E 20 59 65
 166+ A2A7 73 2E 20 49
 166+ A2AB 20 77 6F 75
 166+ A2AF 6C 64 2E 2E
 166+ A2B3 2E 20 61 73
 166+ A2B7 73 69 73 74
 166+ A2BB 20 69 74 2E
 166+ A2BF 00
 167+ A2C0 44 6F 20 79  ir_anim_a5: DB "Do you make up these questions Mr Deckard?",0
 167+ A2C4 6F 75 20 6D
 167+ A2C8 61 6B 65 20
 167+ A2CC 75 70 20 74
 167+ A2D0 68 65 73 65
 167+ A2D4 20 71 75 65
 167+ A2D8 73 74 69 6F
 167+ A2DC 6E 73 20 4D
 167+ A2E0 72 20 44 65
 167+ A2E4 63 6B 61 72
 167+ A2E8 64 3F 00
 168+ A2EB 41 20 74 6F  ir_anim_a6: DB "A tortoise in the desert. I would observe first.",0
 168+ A2EF 72 74 6F 69
 168+ A2F3 73 65 20 69
 168+ A2F7 6E 20 74 68
 168+ A2FB 65 20 64 65
 168+ A2FF 73 65 72 74
 168+ A303 2E 20 49 20
 168+ A307 77 6F 75 6C
 168+ A30B 64 20 6F 62
 168+ A30F 73 65 72 76
 168+ A313 65 20 66 69
 168+ A317 72 73 74 2E
 168+ A31B 00
 169+ A31C 49 20 68 61  ir_anim_a7: DB "I have never seen a tortoise. But I understand.",0
 169+ A320 76 65 20 6E
 169+ A324 65 76 65 72
 169+ A328 20 73 65 65
 169+ A32C 6E 20 61 20
 169+ A330 74 6F 72 74
 169+ A334 6F 69 73 65
 169+ A338 2E 20 42 75
 169+ A33C 74 20 49 20
 169+ A340 75 6E 64 65
 169+ A344 72 73 74 61
 169+ A348 6E 64 2E 00
 170+ A34C
 171+ A34C              ; --- Icon 5: CHILD ---
 172+ A34C 49 20 77 6F  ir_chld_h0: DB "I would go to them immediately. Are you serious?",0
 172+ A350 75 6C 64 20
 172+ A354 67 6F 20 74
 172+ A358 6F 20 74 68
 172+ A35C 65 6D 20 69
 172+ A360 6D 6D 65 64
 172+ A364 69 61 74 65
 172+ A368 6C 79 2E 20
 172+ A36C 41 72 65 20
 172+ A370 79 6F 75 20
 172+ A374 73 65 72 69
 172+ A378 6F 75 73 3F
 172+ A37C 00
 173+ A37D 41 20 63 72  ir_chld_h1: DB "A crying child? I would hold them. Obviously.",0
 173+ A381 79 69 6E 67
 173+ A385 20 63 68 69
 173+ A389 6C 64 3F 20
 173+ A38D 49 20 77 6F
 173+ A391 75 6C 64 20
 173+ A395 68 6F 6C 64
 173+ A399 20 74 68 65
 173+ A39D 6D 2E 20 4F
 173+ A3A1 62 76 69 6F
 173+ A3A5 75 73 6C 79
 173+ A3A9 2E 00
 174+ A3AB 54 68 61 74  ir_chld_h2: DB "That breaks my heart. I cannot even think about it.",0
 174+ A3AF 20 62 72 65
 174+ A3B3 61 6B 73 20
 174+ A3B7 6D 79 20 68
 174+ A3BB 65 61 72 74
 174+ A3BF 2E 20 49 20
 174+ A3C3 63 61 6E 6E
 174+ A3C7 6F 74 20 65
 174+ A3CB 76 65 6E 20
 174+ A3CF 74 68 69 6E
 174+ A3D3 6B 20 61 62
 174+ A3D7 6F 75 74 20
 174+ A3DB 69 74 2E 00
 175+ A3DF 49 20 77 6F  ir_chld_h3: DB "I would find their parents. Stay with them.",0
 175+ A3E3 75 6C 64 20
 175+ A3E7 66 69 6E 64
 175+ A3EB 20 74 68 65
 175+ A3EF 69 72 20 70
 175+ A3F3 61 72 65 6E
 175+ A3F7 74 73 2E 20
 175+ A3FB 53 74 61 79
 175+ A3FF 20 77 69 74
 175+ A403 68 20 74 68
 175+ A407 65 6D 2E 00
 176+ A40B 49 20 77 6F  ir_chld_h4: DB "I would kneel down. Talk softly. Ask their name.",0
 176+ A40F 75 6C 64 20
 176+ A413 6B 6E 65 65
 176+ A417 6C 20 64 6F
 176+ A41B 77 6E 2E 20
 176+ A41F 54 61 6C 6B
 176+ A423 20 73 6F 66
 176+ A427 74 6C 79 2E
 176+ A42B 20 41 73 6B
 176+ A42F 20 74 68 65
 176+ A433 69 72 20 6E
 176+ A437 61 6D 65 2E
 176+ A43B 00
 177+ A43C 4E 6F 20 63  ir_chld_h5: DB "No child should be alone. I would never walk past.",0
 177+ A440 68 69 6C 64
 177+ A444 20 73 68 6F
 177+ A448 75 6C 64 20
 177+ A44C 62 65 20 61
 177+ A450 6C 6F 6E 65
 177+ A454 2E 20 49 20
 177+ A458 77 6F 75 6C
 177+ A45C 64 20 6E 65
 177+ A460 76 65 72 20
 177+ A464 77 61 6C 6B
 177+ A468 20 70 61 73
 177+ A46C 74 2E 00
 178+ A46F 4D 79 20 63  ir_chld_h6: DB "My chest tightens just imagining it.",0
 178+ A473 68 65 73 74
 178+ A477 20 74 69 67
 178+ A47B 68 74 65 6E
 178+ A47F 73 20 6A 75
 178+ A483 73 74 20 69
 178+ A487 6D 61 67 69
 178+ A48B 6E 69 6E 67
 178+ A48F 20 69 74 2E
 178+ A493 00
 179+ A494 43 68 69 6C  ir_chld_h7: DB "Children need protecting. That is not a question.",0
 179+ A498 64 72 65 6E
 179+ A49C 20 6E 65 65
 179+ A4A0 64 20 70 72
 179+ A4A4 6F 74 65 63
 179+ A4A8 74 69 6E 67
 179+ A4AC 2E 20 54 68
 179+ A4B0 61 74 20 69
 179+ A4B4 73 20 6E 6F
 179+ A4B8 74 20 61 20
 179+ A4BC 71 75 65 73
 179+ A4C0 74 69 6F 6E
 179+ A4C4 2E 00
 180+ A4C6 49 20 77 6F  ir_chld_a0: DB "I would locate the appropriate authority.",0
 180+ A4CA 75 6C 64 20
 180+ A4CE 6C 6F 63 61
 180+ A4D2 74 65 20 74
 180+ A4D6 68 65 20 61
 180+ A4DA 70 70 72 6F
 180+ A4DE 70 72 69 61
 180+ A4E2 74 65 20 61
 180+ A4E6 75 74 68 6F
 180+ A4EA 72 69 74 79
 180+ A4EE 2E 00
 181+ A4F0 43 68 69 6C  ir_chld_a1: DB "Children cry. It is what they do. I would assist.",0
 181+ A4F4 64 72 65 6E
 181+ A4F8 20 63 72 79
 181+ A4FC 2E 20 49 74
 181+ A500 20 69 73 20
 181+ A504 77 68 61 74
 181+ A508 20 74 68 65
 181+ A50C 79 20 64 6F
 181+ A510 2E 20 49 20
 181+ A514 77 6F 75 6C
 181+ A518 64 20 61 73
 181+ A51C 73 69 73 74
 181+ A520 2E 00
 182+ A522 49 20 77 6F  ir_chld_a2: DB "I would approach calmly. Assess the situation.",0
 182+ A526 75 6C 64 20
 182+ A52A 61 70 70 72
 182+ A52E 6F 61 63 68
 182+ A532 20 63 61 6C
 182+ A536 6D 6C 79 2E
 182+ A53A 20 41 73 73
 182+ A53E 65 73 73 20
 182+ A542 74 68 65 20
 182+ A546 73 69 74 75
 182+ A54A 61 74 69 6F
 182+ A54E 6E 2E 00
 183+ A551 54 68 65 20  ir_chld_a3: DB "The child should be returned to its guardian.",0
 183+ A555 63 68 69 6C
 183+ A559 64 20 73 68
 183+ A55D 6F 75 6C 64
 183+ A561 20 62 65 20
 183+ A565 72 65 74 75
 183+ A569 72 6E 65 64
 183+ A56D 20 74 6F 20
 183+ A571 69 74 73 20
 183+ A575 67 75 61 72
 183+ A579 64 69 61 6E
 183+ A57D 2E 00
 184+ A57F 49 20 77 6F  ir_chld_a4: DB "I would contact the relevant social services.",0
 184+ A583 75 6C 64 20
 184+ A587 63 6F 6E 74
 184+ A58B 61 63 74 20
 184+ A58F 74 68 65 20
 184+ A593 72 65 6C 65
 184+ A597 76 61 6E 74
 184+ A59B 20 73 6F 63
 184+ A59F 69 61 6C 20
 184+ A5A3 73 65 72 76
 184+ A5A7 69 63 65 73
 184+ A5AB 2E 00
 185+ A5AD 41 20 6C 6F  ir_chld_a5: DB "A lost child requires a systematic search protocol.",0
 185+ A5B1 73 74 20 63
 185+ A5B5 68 69 6C 64
 185+ A5B9 20 72 65 71
 185+ A5BD 75 69 72 65
 185+ A5C1 73 20 61 20
 185+ A5C5 73 79 73 74
 185+ A5C9 65 6D 61 74
 185+ A5CD 69 63 20 73
 185+ A5D1 65 61 72 63
 185+ A5D5 68 20 70 72
 185+ A5D9 6F 74 6F 63
 185+ A5DD 6F 6C 2E 00
 186+ A5E1 49 20 77 6F  ir_chld_a6: DB "I would help. That is the expected response.",0
 186+ A5E5 75 6C 64 20
 186+ A5E9 68 65 6C 70
 186+ A5ED 2E 20 54 68
 186+ A5F1 61 74 20 69
 186+ A5F5 73 20 74 68
 186+ A5F9 65 20 65 78
 186+ A5FD 70 65 63 74
 186+ A601 65 64 20 72
 186+ A605 65 73 70 6F
 186+ A609 6E 73 65 2E
 186+ A60D 00
 187+ A60E 43 68 69 6C  ir_chld_a7: DB "Children are... vulnerable. I understand this.",0
 187+ A612 64 72 65 6E
 187+ A616 20 61 72 65
 187+ A61A 2E 2E 2E 20
 187+ A61E 76 75 6C 6E
 187+ A622 65 72 61 62
 187+ A626 6C 65 2E 20
 187+ A62A 49 20 75 6E
 187+ A62E 64 65 72 73
 187+ A632 74 61 6E 64
 187+ A636 20 74 68 69
 187+ A63A 73 2E 00
 188+ A63D
 189+ A63D              ; --- Icon 6: MOTHER ---
 190+ A63D 53 68 65 20  ir_moth_h0: DB "She used to sing to me. I still hear it.",0
 190+ A641 75 73 65 64
 190+ A645 20 74 6F 20
 190+ A649 73 69 6E 67
 190+ A64D 20 74 6F 20
 190+ A651 6D 65 2E 20
 190+ A655 49 20 73 74
 190+ A659 69 6C 6C 20
 190+ A65D 68 65 61 72
 190+ A661 20 69 74 2E
 190+ A665 00
 191+ A666 4D 79 20 6D  ir_moth_h1: DB "My mother... I would rather not talk about her.",0
 191+ A66A 6F 74 68 65
 191+ A66E 72 2E 2E 2E
 191+ A672 20 49 20 77
 191+ A676 6F 75 6C 64
 191+ A67A 20 72 61 74
 191+ A67E 68 65 72 20
 191+ A682 6E 6F 74 20
 191+ A686 74 61 6C 6B
 191+ A68A 20 61 62 6F
 191+ A68E 75 74 20 68
 191+ A692 65 72 2E 00
 192+ A696 53 68 65 20  ir_moth_h2: DB "She smelled like lavender. I miss that.",0
 192+ A69A 73 6D 65 6C
 192+ A69E 6C 65 64 20
 192+ A6A2 6C 69 6B 65
 192+ A6A6 20 6C 61 76
 192+ A6AA 65 6E 64 65
 192+ A6AE 72 2E 20 49
 192+ A6B2 20 6D 69 73
 192+ A6B6 73 20 74 68
 192+ A6BA 61 74 2E 00
 193+ A6BE 4C 65 74 20  ir_moth_h3: DB "Let me tell you about my mother.",0
 193+ A6C2 6D 65 20 74
 193+ A6C6 65 6C 6C 20
 193+ A6CA 79 6F 75 20
 193+ A6CE 61 62 6F 75
 193+ A6D2 74 20 6D 79
 193+ A6D6 20 6D 6F 74
 193+ A6DA 68 65 72 2E
 193+ A6DE 00
 194+ A6DF 53 68 65 20  ir_moth_h4: DB "She worried about everything. I wish she hadn't.",0
 194+ A6E3 77 6F 72 72
 194+ A6E7 69 65 64 20
 194+ A6EB 61 62 6F 75
 194+ A6EF 74 20 65 76
 194+ A6F3 65 72 79 74
 194+ A6F7 68 69 6E 67
 194+ A6FB 2E 20 49 20
 194+ A6FF 77 69 73 68
 194+ A703 20 73 68 65
 194+ A707 20 68 61 64
 194+ A70B 6E 27 74 2E
 194+ A70F 00
 195+ A710 49 20 73 65  ir_moth_h5: DB "I see her face when I close my eyes. Every night.",0
 195+ A714 65 20 68 65
 195+ A718 72 20 66 61
 195+ A71C 63 65 20 77
 195+ A720 68 65 6E 20
 195+ A724 49 20 63 6C
 195+ A728 6F 73 65 20
 195+ A72C 6D 79 20 65
 195+ A730 79 65 73 2E
 195+ A734 20 45 76 65
 195+ A738 72 79 20 6E
 195+ A73C 69 67 68 74
 195+ A740 2E 00
 196+ A742 53 68 65 20  ir_moth_h6: DB "She was kind. Fierce. She would have liked you.",0
 196+ A746 77 61 73 20
 196+ A74A 6B 69 6E 64
 196+ A74E 2E 20 46 69
 196+ A752 65 72 63 65
 196+ A756 2E 20 53 68
 196+ A75A 65 20 77 6F
 196+ A75E 75 6C 64 20
 196+ A762 68 61 76 65
 196+ A766 20 6C 69 6B
 196+ A76A 65 64 20 79
 196+ A76E 6F 75 2E 00
 197+ A772 4D 79 20 6D  ir_moth_h7: DB "My mother made me who I am. For better or worse.",0
 197+ A776 6F 74 68 65
 197+ A77A 72 20 6D 61
 197+ A77E 64 65 20 6D
 197+ A782 65 20 77 68
 197+ A786 6F 20 49 20
 197+ A78A 61 6D 2E 20
 197+ A78E 46 6F 72 20
 197+ A792 62 65 74 74
 197+ A796 65 72 20 6F
 197+ A79A 72 20 77 6F
 197+ A79E 72 73 65 2E
 197+ A7A2 00
 198+ A7A3 4D 79 20 6D  ir_moth_a0: DB "My mother was kind. She cared for me.",0
 198+ A7A7 6F 74 68 65
 198+ A7AB 72 20 77 61
 198+ A7AF 73 20 6B 69
 198+ A7B3 6E 64 2E 20
 198+ A7B7 53 68 65 20
 198+ A7BB 63 61 72 65
 198+ A7BF 64 20 66 6F
 198+ A7C3 72 20 6D 65
 198+ A7C7 2E 00
 199+ A7C9 53 68 65 20  ir_moth_a1: DB "She taught me to play piano. I never finished.",0
 199+ A7CD 74 61 75 67
 199+ A7D1 68 74 20 6D
 199+ A7D5 65 20 74 6F
 199+ A7D9 20 70 6C 61
 199+ A7DD 79 20 70 69
 199+ A7E1 61 6E 6F 2E
 199+ A7E5 20 49 20 6E
 199+ A7E9 65 76 65 72
 199+ A7ED 20 66 69 6E
 199+ A7F1 69 73 68 65
 199+ A7F5 64 2E 00
 200+ A7F8 49 20 68 61  ir_moth_a2: DB "I have a mother. She is... she was... adequate.",0
 200+ A7FC 76 65 20 61
 200+ A800 20 6D 6F 74
 200+ A804 68 65 72 2E
 200+ A808 20 53 68 65
 200+ A80C 20 69 73 2E
 200+ A810 2E 2E 20 73
 200+ A814 68 65 20 77
 200+ A818 61 73 2E 2E
 200+ A81C 2E 20 61 64
 200+ A820 65 71 75 61
 200+ A824 74 65 2E 00
 201+ A828 4D 79 20 6D  ir_moth_a3: DB "My mother? What about my mother?",0
 201+ A82C 6F 74 68 65
 201+ A830 72 3F 20 57
 201+ A834 68 61 74 20
 201+ A838 61 62 6F 75
 201+ A83C 74 20 6D 79
 201+ A840 20 6D 6F 74
 201+ A844 68 65 72 3F
 201+ A848 00
 202+ A849 4D 79 20 6D  ir_moth_a4: DB "My mother provided the necessary care. As expected.",0
 202+ A84D 6F 74 68 65
 202+ A851 72 20 70 72
 202+ A855 6F 76 69 64
 202+ A859 65 64 20 74
 202+ A85D 68 65 20 6E
 202+ A861 65 63 65 73
 202+ A865 73 61 72 79
 202+ A869 20 63 61 72
 202+ A86D 65 2E 20 41
 202+ A871 73 20 65 78
 202+ A875 70 65 63 74
 202+ A879 65 64 2E 00
 203+ A87D 49 20 72 65  ir_moth_a5: DB "I recall my mother clearly. Every interaction.",0
 203+ A881 63 61 6C 6C
 203+ A885 20 6D 79 20
 203+ A889 6D 6F 74 68
 203+ A88D 65 72 20 63
 203+ A891 6C 65 61 72
 203+ A895 6C 79 2E 20
 203+ A899 45 76 65 72
 203+ A89D 79 20 69 6E
 203+ A8A1 74 65 72 61
 203+ A8A5 63 74 69 6F
 203+ A8A9 6E 2E 00
 204+ A8AC 53 68 65 20  ir_moth_a6: DB "She was my mother. I have nothing further to add.",0
 204+ A8B0 77 61 73 20
 204+ A8B4 6D 79 20 6D
 204+ A8B8 6F 74 68 65
 204+ A8BC 72 2E 20 49
 204+ A8C0 20 68 61 76
 204+ A8C4 65 20 6E 6F
 204+ A8C8 74 68 69 6E
 204+ A8CC 67 20 66 75
 204+ A8D0 72 74 68 65
 204+ A8D4 72 20 74 6F
 204+ A8D8 20 61 64 64
 204+ A8DC 2E 00
 205+ A8DE 4D 6F 74 68  ir_moth_a7: DB "Mother. Yes. A woman. She existed. I remember.",0
 205+ A8E2 65 72 2E 20
 205+ A8E6 59 65 73 2E
 205+ A8EA 20 41 20 77
 205+ A8EE 6F 6D 61 6E
 205+ A8F2 2E 20 53 68
 205+ A8F6 65 20 65 78
 205+ A8FA 69 73 74 65
 205+ A8FE 64 2E 20 49
 205+ A902 20 72 65 6D
 205+ A906 65 6D 62 65
 205+ A90A 72 2E 00
 206+ A90D
 207+ A90D              ; --- Icon 7: STRANGER ---
 208+ A90D 49 74 20 64  ir_str_h0: DB "It depends. On the street? At night? I would be wary.",0
 208+ A911 65 70 65 6E
 208+ A915 64 73 2E 20
 208+ A919 4F 6E 20 74
 208+ A91D 68 65 20 73
 208+ A921 74 72 65 65
 208+ A925 74 3F 20 41
 208+ A929 74 20 6E 69
 208+ A92D 67 68 74 3F
 208+ A931 20 49 20 77
 208+ A935 6F 75 6C 64
 208+ A939 20 62 65 20
 208+ A93D 77 61 72 79
 208+ A941 2E 00
 209+ A943 49 20 77 6F  ir_str_h1: DB "I would help if I could. You have to try.",0
 209+ A947 75 6C 64 20
 209+ A94B 68 65 6C 70
 209+ A94F 20 69 66 20
 209+ A953 49 20 63 6F
 209+ A957 75 6C 64 2E
 209+ A95B 20 59 6F 75
 209+ A95F 20 68 61 76
 209+ A963 65 20 74 6F
 209+ A967 20 74 72 79
 209+ A96B 2E 00
 210+ A96D 50 65 6F 70  ir_str_h2: DB "People need each other. I would not walk past.",0
 210+ A971 6C 65 20 6E
 210+ A975 65 65 64 20
 210+ A979 65 61 63 68
 210+ A97D 20 6F 74 68
 210+ A981 65 72 2E 20
 210+ A985 49 20 77 6F
 210+ A989 75 6C 64 20
 210+ A98D 6E 6F 74 20
 210+ A991 77 61 6C 6B
 210+ A995 20 70 61 73
 210+ A999 74 2E 00
 211+ A99C 49 20 77 6F  ir_str_h3: DB "I would ask what they need. Then decide.",0
 211+ A9A0 75 6C 64 20
 211+ A9A4 61 73 6B 20
 211+ A9A8 77 68 61 74
 211+ A9AC 20 74 68 65
 211+ A9B0 79 20 6E 65
 211+ A9B4 65 64 2E 20
 211+ A9B8 54 68 65 6E
 211+ A9BC 20 64 65 63
 211+ A9C0 69 64 65 2E
 211+ A9C4 00
 212+ A9C5 48 6F 6E 65  ir_str_h4: DB "Honestly? It depends on how they looked at me.",0
 212+ A9C9 73 74 6C 79
 212+ A9CD 3F 20 49 74
 212+ A9D1 20 64 65 70
 212+ A9D5 65 6E 64 73
 212+ A9D9 20 6F 6E 20
 212+ A9DD 68 6F 77 20
 212+ A9E1 74 68 65 79
 212+ A9E5 20 6C 6F 6F
 212+ A9E9 6B 65 64 20
 212+ A9ED 61 74 20 6D
 212+ A9F1 65 2E 00
 213+ A9F4 49 20 77 6F  ir_str_h5: DB "I would be cautious but I would stop. Most people would.",0
 213+ A9F8 75 6C 64 20
 213+ A9FC 62 65 20 63
 213+ AA00 61 75 74 69
 213+ AA04 6F 75 73 20
 213+ AA08 62 75 74 20
 213+ AA0C 49 20 77 6F
 213+ AA10 75 6C 64 20
 213+ AA14 73 74 6F 70
 213+ AA18 2E 20 4D 6F
 213+ AA1C 73 74 20 70
 213+ AA20 65 6F 70 6C
 213+ AA24 65 20 77 6F
 213+ AA28 75 6C 64 2E
 213+ AA2C 00
 214+ AA2D 59 6F 75 20  ir_str_h6: DB "You can tell a lot from how someone asks for help.",0
 214+ AA31 63 61 6E 20
 214+ AA35 74 65 6C 6C
 214+ AA39 20 61 20 6C
 214+ AA3D 6F 74 20 66
 214+ AA41 72 6F 6D 20
 214+ AA45 68 6F 77 20
 214+ AA49 73 6F 6D 65
 214+ AA4D 6F 6E 65 20
 214+ AA51 61 73 6B 73
 214+ AA55 20 66 6F 72
 214+ AA59 20 68 65 6C
 214+ AA5D 70 2E 00
 215+ AA60 49 20 68 65  ir_str_h7: DB "I helped someone once and got robbed. So it depends.",0
 215+ AA64 6C 70 65 64
 215+ AA68 20 73 6F 6D
 215+ AA6C 65 6F 6E 65
 215+ AA70 20 6F 6E 63
 215+ AA74 65 20 61 6E
 215+ AA78 64 20 67 6F
 215+ AA7C 74 20 72 6F
 215+ AA80 62 62 65 64
 215+ AA84 2E 20 53 6F
 215+ AA88 20 69 74 20
 215+ AA8C 64 65 70 65
 215+ AA90 6E 64 73 2E
 215+ AA94 00
 216+ AA95 49 20 77 6F  ir_str_a0: DB "I would assess their intent before responding.",0
 216+ AA99 75 6C 64 20
 216+ AA9D 61 73 73 65
 216+ AAA1 73 73 20 74
 216+ AAA5 68 65 69 72
 216+ AAA9 20 69 6E 74
 216+ AAAD 65 6E 74 20
 216+ AAB1 62 65 66 6F
 216+ AAB5 72 65 20 72
 216+ AAB9 65 73 70 6F
 216+ AABD 6E 64 69 6E
 216+ AAC1 67 2E 00
 217+ AAC4 41 20 73 74  ir_str_a1: DB "A stranger. I would be cautious. But polite.",0
 217+ AAC8 72 61 6E 67
 217+ AACC 65 72 2E 20
 217+ AAD0 49 20 77 6F
 217+ AAD4 75 6C 64 20
 217+ AAD8 62 65 20 63
 217+ AADC 61 75 74 69
 217+ AAE0 6F 75 73 2E
 217+ AAE4 20 42 75 74
 217+ AAE8 20 70 6F 6C
 217+ AAEC 69 74 65 2E
 217+ AAF0 00
 218+ AAF1 49 20 77 6F  ir_str_a2: DB "I would help them. That is the correct thing to do.",0
 218+ AAF5 75 6C 64 20
 218+ AAF9 68 65 6C 70
 218+ AAFD 20 74 68 65
 218+ AB01 6D 2E 20 54
 218+ AB05 68 61 74 20
 218+ AB09 69 73 20 74
 218+ AB0D 68 65 20 63
 218+ AB11 6F 72 72 65
 218+ AB15 63 74 20 74
 218+ AB19 68 69 6E 67
 218+ AB1D 20 74 6F 20
 218+ AB21 64 6F 2E 00
 219+ AB25 57 68 79 20  ir_str_a3: DB "Why is a stranger asking me? What do they want?",0
 219+ AB29 69 73 20 61
 219+ AB2D 20 73 74 72
 219+ AB31 61 6E 67 65
 219+ AB35 72 20 61 73
 219+ AB39 6B 69 6E 67
 219+ AB3D 20 6D 65 3F
 219+ AB41 20 57 68 61
 219+ AB45 74 20 64 6F
 219+ AB49 20 74 68 65
 219+ AB4D 79 20 77 61
 219+ AB51 6E 74 3F 00
 220+ AB55 49 20 77 6F  ir_str_a4: DB "I would evaluate the risk and act accordingly.",0
 220+ AB59 75 6C 64 20
 220+ AB5D 65 76 61 6C
 220+ AB61 75 61 74 65
 220+ AB65 20 74 68 65
 220+ AB69 20 72 69 73
 220+ AB6D 6B 20 61 6E
 220+ AB71 64 20 61 63
 220+ AB75 74 20 61 63
 220+ AB79 63 6F 72 64
 220+ AB7D 69 6E 67 6C
 220+ AB81 79 2E 00
 221+ AB84 53 74 72 61  ir_str_a5: DB "Strangers are unknown variables. I proceed carefully.",0
 221+ AB88 6E 67 65 72
 221+ AB8C 73 20 61 72
 221+ AB90 65 20 75 6E
 221+ AB94 6B 6E 6F 77
 221+ AB98 6E 20 76 61
 221+ AB9C 72 69 61 62
 221+ ABA0 6C 65 73 2E
 221+ ABA4 20 49 20 70
 221+ ABA8 72 6F 63 65
 221+ ABAC 65 64 20 63
 221+ ABB0 61 72 65 66
 221+ ABB4 75 6C 6C 79
 221+ ABB8 2E 00
 222+ ABBA 48 65 6C 70  ir_str_a6: DB "Help is the appropriate response. I would comply.",0
 222+ ABBE 20 69 73 20
 222+ ABC2 74 68 65 20
 222+ ABC6 61 70 70 72
 222+ ABCA 6F 70 72 69
 222+ ABCE 61 74 65 20
 222+ ABD2 72 65 73 70
 222+ ABD6 6F 6E 73 65
 222+ ABDA 2E 20 49 20
 222+ ABDE 77 6F 75 6C
 222+ ABE2 64 20 63 6F
 222+ ABE6 6D 70 6C 79
 222+ ABEA 2E 00
 223+ ABEC 49 20 64 6F  ir_str_a7: DB "I do not interact with strangers unless required.",0
 223+ ABF0 20 6E 6F 74
 223+ ABF4 20 69 6E 74
 223+ ABF8 65 72 61 63
 223+ ABFC 74 20 77 69
 223+ AC00 74 68 20 73
 223+ AC04 74 72 61 6E
 223+ AC08 67 65 72 73
 223+ AC0C 20 75 6E 6C
 223+ AC10 65 73 73 20
 223+ AC14 72 65 71 75
 223+ AC18 69 72 65 64
 223+ AC1C 2E 00
 224+ AC1E
 225+ AC1E              ; --- Icon 8: TIME ---
 226+ AC1E 49 74 20 67  ir_time_h0: DB "It goes too fast now. When I was young it crawled.",0
 226+ AC22 6F 65 73 20
 226+ AC26 74 6F 6F 20
 226+ AC2A 66 61 73 74
 226+ AC2E 20 6E 6F 77
 226+ AC32 2E 20 57 68
 226+ AC36 65 6E 20 49
 226+ AC3A 20 77 61 73
 226+ AC3E 20 79 6F 75
 226+ AC42 6E 67 20 69
 226+ AC46 74 20 63 72
 226+ AC4A 61 77 6C 65
 226+ AC4E 64 2E 00
 227+ AC51 53 6F 6D 65  ir_time_h1: DB "Some days feel like years. Others vanish.",0
 227+ AC55 20 64 61 79
 227+ AC59 73 20 66 65
 227+ AC5D 65 6C 20 6C
 227+ AC61 69 6B 65 20
 227+ AC65 79 65 61 72
 227+ AC69 73 2E 20 4F
 227+ AC6D 74 68 65 72
 227+ AC71 73 20 76 61
 227+ AC75 6E 69 73 68
 227+ AC79 2E 00
 228+ AC7B 49 20 77 61  ir_time_h2: DB "I waste too much of it. I know that.",0
 228+ AC7F 73 74 65 20
 228+ AC83 74 6F 6F 20
 228+ AC87 6D 75 63 68
 228+ AC8B 20 6F 66 20
 228+ AC8F 69 74 2E 20
 228+ AC93 49 20 6B 6E
 228+ AC97 6F 77 20 74
 228+ AC9B 68 61 74 2E
 228+ AC9F 00
 229+ ACA0 54 69 6D 65  ir_time_h3: DB "Time only matters when you are running out.",0
 229+ ACA4 20 6F 6E 6C
 229+ ACA8 79 20 6D 61
 229+ ACAC 74 74 65 72
 229+ ACB0 73 20 77 68
 229+ ACB4 65 6E 20 79
 229+ ACB8 6F 75 20 61
 229+ ACBC 72 65 20 72
 229+ ACC0 75 6E 6E 69
 229+ ACC4 6E 67 20 6F
 229+ ACC8 75 74 2E 00
 230+ ACCC 54 68 65 20  ir_time_h4: DB "The hours blur together. Especially the bad ones.",0
 230+ ACD0 68 6F 75 72
 230+ ACD4 73 20 62 6C
 230+ ACD8 75 72 20 74
 230+ ACDC 6F 67 65 74
 230+ ACE0 68 65 72 2E
 230+ ACE4 20 45 73 70
 230+ ACE8 65 63 69 61
 230+ ACEC 6C 6C 79 20
 230+ ACF0 74 68 65 20
 230+ ACF4 62 61 64 20
 230+ ACF8 6F 6E 65 73
 230+ ACFC 2E 00
 231+ ACFE 57 65 65 6B  ir_time_h5: DB "Weekends go in a blink. Mondays last forever.",0
 231+ AD02 65 6E 64 73
 231+ AD06 20 67 6F 20
 231+ AD0A 69 6E 20 61
 231+ AD0E 20 62 6C 69
 231+ AD12 6E 6B 2E 20
 231+ AD16 4D 6F 6E 64
 231+ AD1A 61 79 73 20
 231+ AD1E 6C 61 73 74
 231+ AD22 20 66 6F 72
 231+ AD26 65 76 65 72
 231+ AD2A 2E 00
 232+ AD2C 49 20 77 69  ir_time_h6: DB "I wish I could slow it down. Hold onto things.",0
 232+ AD30 73 68 20 49
 232+ AD34 20 63 6F 75
 232+ AD38 6C 64 20 73
 232+ AD3C 6C 6F 77 20
 232+ AD40 69 74 20 64
 232+ AD44 6F 77 6E 2E
 232+ AD48 20 48 6F 6C
 232+ AD4C 64 20 6F 6E
 232+ AD50 74 6F 20 74
 232+ AD54 68 69 6E 67
 232+ AD58 73 2E 00
 233+ AD5B 54 69 6D 65  ir_time_h7: DB "Time heals they say. It does not. You just forget.",0
 233+ AD5F 20 68 65 61
 233+ AD63 6C 73 20 74
 233+ AD67 68 65 79 20
 233+ AD6B 73 61 79 2E
 233+ AD6F 20 49 74 20
 233+ AD73 64 6F 65 73
 233+ AD77 20 6E 6F 74
 233+ AD7B 2E 20 59 6F
 233+ AD7F 75 20 6A 75
 233+ AD83 73 74 20 66
 233+ AD87 6F 72 67 65
 233+ AD8B 74 2E 00
 234+ AD8E 54 69 6D 65  ir_time_a0: DB "Time is constant. I experience it linearly.",0
 234+ AD92 20 69 73 20
 234+ AD96 63 6F 6E 73
 234+ AD9A 74 61 6E 74
 234+ AD9E 2E 20 49 20
 234+ ADA2 65 78 70 65
 234+ ADA6 72 69 65 6E
 234+ ADAA 63 65 20 69
 234+ ADAE 74 20 6C 69
 234+ ADB2 6E 65 61 72
 234+ ADB6 6C 79 2E 00
 235+ ADBA 49 20 61 6D  ir_time_a1: DB "I am aware of each second. Precisely.",0
 235+ ADBE 20 61 77 61
 235+ ADC2 72 65 20 6F
 235+ ADC6 66 20 65 61
 235+ ADCA 63 68 20 73
 235+ ADCE 65 63 6F 6E
 235+ ADD2 64 2E 20 50
 235+ ADD6 72 65 63 69
 235+ ADDA 73 65 6C 79
 235+ ADDE 2E 00
 236+ ADE0 54 69 6D 65  ir_time_a2: DB "Time passes. I am present for it.",0
 236+ ADE4 20 70 61 73
 236+ ADE8 73 65 73 2E
 236+ ADEC 20 49 20 61
 236+ ADF0 6D 20 70 72
 236+ ADF4 65 73 65 6E
 236+ ADF8 74 20 66 6F
 236+ ADFC 72 20 69 74
 236+ AE00 2E 00
 237+ AE02 49 20 64 6F  ir_time_a3: DB "I do not understand what you mean by experience.",0
 237+ AE06 20 6E 6F 74
 237+ AE0A 20 75 6E 64
 237+ AE0E 65 72 73 74
 237+ AE12 61 6E 64 20
 237+ AE16 77 68 61 74
 237+ AE1A 20 79 6F 75
 237+ AE1E 20 6D 65 61
 237+ AE22 6E 20 62 79
 237+ AE26 20 65 78 70
 237+ AE2A 65 72 69 65
 237+ AE2E 6E 63 65 2E
 237+ AE32 00
 238+ AE33 4D 79 20 69  ir_time_a4: DB "My internal clock is accurate to the millisecond.",0
 238+ AE37 6E 74 65 72
 238+ AE3B 6E 61 6C 20
 238+ AE3F 63 6C 6F 63
 238+ AE43 6B 20 69 73
 238+ AE47 20 61 63 63
 238+ AE4B 75 72 61 74
 238+ AE4F 65 20 74 6F
 238+ AE53 20 74 68 65
 238+ AE57 20 6D 69 6C
 238+ AE5B 6C 69 73 65
 238+ AE5F 63 6F 6E 64
 238+ AE63 2E 00
 239+ AE65 54 69 6D 65  ir_time_a5: DB "Time does not feel fast or slow to me. It just is.",0
 239+ AE69 20 64 6F 65
 239+ AE6D 73 20 6E 6F
 239+ AE71 74 20 66 65
 239+ AE75 65 6C 20 66
 239+ AE79 61 73 74 20
 239+ AE7D 6F 72 20 73
 239+ AE81 6C 6F 77 20
 239+ AE85 74 6F 20 6D
 239+ AE89 65 2E 20 49
 239+ AE8D 74 20 6A 75
 239+ AE91 73 74 20 69
 239+ AE95 73 2E 00
 240+ AE98 49 20 6D 61  ir_time_a6: DB "I mark time by events. Not by feelings.",0
 240+ AE9C 72 6B 20 74
 240+ AEA0 69 6D 65 20
 240+ AEA4 62 79 20 65
 240+ AEA8 76 65 6E 74
 240+ AEAC 73 2E 20 4E
 240+ AEB0 6F 74 20 62
 240+ AEB4 79 20 66 65
 240+ AEB8 65 6C 69 6E
 240+ AEBC 67 73 2E 00
 241+ AEC0 44 75 72 61  ir_time_a7: DB "Duration is measurable. I measure it correctly.",0
 241+ AEC4 74 69 6F 6E
 241+ AEC8 20 69 73 20
 241+ AECC 6D 65 61 73
 241+ AED0 75 72 61 62
 241+ AED4 6C 65 2E 20
 241+ AED8 49 20 6D 65
 241+ AEDC 61 73 75 72
 241+ AEE0 65 20 69 74
 241+ AEE4 20 63 6F 72
 241+ AEE8 72 65 63 74
 241+ AEEC 6C 79 2E 00
 242+ AEF0
 243+ AEF0              ; --- Icon 9: DEATH ---
 244+ AEF0 49 20 63 61  ir_dth_h0: DB "I cannot... please do not ask me that.",0
 244+ AEF4 6E 6E 6F 74
 244+ AEF8 2E 2E 2E 20
 244+ AEFC 70 6C 65 61
 244+ AF00 73 65 20 64
 244+ AF04 6F 20 6E 6F
 244+ AF08 74 20 61 73
 244+ AF0C 6B 20 6D 65
 244+ AF10 20 74 68 61
 244+ AF14 74 2E 00
 245+ AF17 49 20 68 65  ir_dth_h1: DB "I held her hand at the end. She knew I was there.",0
 245+ AF1B 6C 64 20 68
 245+ AF1F 65 72 20 68
 245+ AF23 61 6E 64 20
 245+ AF27 61 74 20 74
 245+ AF2B 68 65 20 65
 245+ AF2F 6E 64 2E 20
 245+ AF33 53 68 65 20
 245+ AF37 6B 6E 65 77
 245+ AF3B 20 49 20 77
 245+ AF3F 61 73 20 74
 245+ AF43 68 65 72 65
 245+ AF47 2E 00
 246+ AF49 44 65 61 74  ir_dth_h2: DB "Death terrifies me. I think about it every day.",0
 246+ AF4D 68 20 74 65
 246+ AF51 72 72 69 66
 246+ AF55 69 65 73 20
 246+ AF59 6D 65 2E 20
 246+ AF5D 49 20 74 68
 246+ AF61 69 6E 6B 20
 246+ AF65 61 62 6F 75
 246+ AF69 74 20 69 74
 246+ AF6D 20 65 76 65
 246+ AF71 72 79 20 64
 246+ AF75 61 79 2E 00
 247+ AF79 45 76 65 72  ir_dth_h3: DB "Everyone dies. That does not make it easier.",0
 247+ AF7D 79 6F 6E 65
 247+ AF81 20 64 69 65
 247+ AF85 73 2E 20 54
 247+ AF89 68 61 74 20
 247+ AF8D 64 6F 65 73
 247+ AF91 20 6E 6F 74
 247+ AF95 20 6D 61 6B
 247+ AF99 65 20 69 74
 247+ AF9D 20 65 61 73
 247+ AFA1 69 65 72 2E
 247+ AFA5 00
 248+ AFA6 49 20 77 61  ir_dth_h4: DB "I watched my grandfather die. I was twelve.",0
 248+ AFAA 74 63 68 65
 248+ AFAE 64 20 6D 79
 248+ AFB2 20 67 72 61
 248+ AFB6 6E 64 66 61
 248+ AFBA 74 68 65 72
 248+ AFBE 20 64 69 65
 248+ AFC2 2E 20 49 20
 248+ AFC6 77 61 73 20
 248+ AFCA 74 77 65 6C
 248+ AFCE 76 65 2E 00
 249+ AFD2 54 68 65 20  ir_dth_h5: DB "The silence after. That is the worst part.",0
 249+ AFD6 73 69 6C 65
 249+ AFDA 6E 63 65 20
 249+ AFDE 61 66 74 65
 249+ AFE2 72 2E 20 54
 249+ AFE6 68 61 74 20
 249+ AFEA 69 73 20 74
 249+ AFEE 68 65 20 77
 249+ AFF2 6F 72 73 74
 249+ AFF6 20 70 61 72
 249+ AFFA 74 2E 00
 250+ AFFD 49 20 64 6F  ir_dth_h6: DB "I do not want to die alone. That is my only wish.",0
 250+ B001 20 6E 6F 74
 250+ B005 20 77 61 6E
 250+ B009 74 20 74 6F
 250+ B00D 20 64 69 65
 250+ B011 20 61 6C 6F
 250+ B015 6E 65 2E 20
 250+ B019 54 68 61 74
 250+ B01D 20 69 73 20
 250+ B021 6D 79 20 6F
 250+ B025 6E 6C 79 20
 250+ B029 77 69 73 68
 250+ B02D 2E 00
 251+ B02F 59 6F 75 20  ir_dth_h7: DB "You do not get used to loss. You just carry it.",0
 251+ B033 64 6F 20 6E
 251+ B037 6F 74 20 67
 251+ B03B 65 74 20 75
 251+ B03F 73 65 64 20
 251+ B043 74 6F 20 6C
 251+ B047 6F 73 73 2E
 251+ B04B 20 59 6F 75
 251+ B04F 20 6A 75 73
 251+ B053 74 20 63 61
 251+ B057 72 72 79 20
 251+ B05B 69 74 2E 00
 252+ B05F 44 65 61 74  ir_dth_a0: DB "Death is the cessation of function. It is final.",0
 252+ B063 68 20 69 73
 252+ B067 20 74 68 65
 252+ B06B 20 63 65 73
 252+ B06F 73 61 74 69
 252+ B073 6F 6E 20 6F
 252+ B077 66 20 66 75
 252+ B07B 6E 63 74 69
 252+ B07F 6F 6E 2E 20
 252+ B083 49 74 20 69
 252+ B087 73 20 66 69
 252+ B08B 6E 61 6C 2E
 252+ B08F 00
 253+ B090 49 20 75 6E  ir_dth_a1: DB "I understand death. I would prefer to avoid it.",0
 253+ B094 64 65 72 73
 253+ B098 74 61 6E 64
 253+ B09C 20 64 65 61
 253+ B0A0 74 68 2E 20
 253+ B0A4 49 20 77 6F
 253+ B0A8 75 6C 64 20
 253+ B0AC 70 72 65 66
 253+ B0B0 65 72 20 74
 253+ B0B4 6F 20 61 76
 253+ B0B8 6F 69 64 20
 253+ B0BC 69 74 2E 00
 254+ B0C0 57 68 65 6E  ir_dth_a2: DB "When they die I would... feel... I would feel sad.",0
 254+ B0C4 20 74 68 65
 254+ B0C8 79 20 64 69
 254+ B0CC 65 20 49 20
 254+ B0D0 77 6F 75 6C
 254+ B0D4 64 2E 2E 2E
 254+ B0D8 20 66 65 65
 254+ B0DC 6C 2E 2E 2E
 254+ B0E0 20 49 20 77
 254+ B0E4 6F 75 6C 64
 254+ B0E8 20 66 65 65
 254+ B0EC 6C 20 73 61
 254+ B0F0 64 2E 00
 255+ B0F3 4C 6F 73 73  ir_dth_a3: DB "Loss is a concept I have studied. Extensively.",0
 255+ B0F7 20 69 73 20
 255+ B0FB 61 20 63 6F
 255+ B0FF 6E 63 65 70
 255+ B103 74 20 49 20
 255+ B107 68 61 76 65
 255+ B10B 20 73 74 75
 255+ B10F 64 69 65 64
 255+ B113 2E 20 45 78
 255+ B117 74 65 6E 73
 255+ B11B 69 76 65 6C
 255+ B11F 79 2E 00
 256+ B122 44 65 61 74  ir_dth_a4: DB "Death is inevitable. I accept this fact.",0
 256+ B126 68 20 69 73
 256+ B12A 20 69 6E 65
 256+ B12E 76 69 74 61
 256+ B132 62 6C 65 2E
 256+ B136 20 49 20 61
 256+ B13A 63 63 65 70
 256+ B13E 74 20 74 68
 256+ B142 69 73 20 66
 256+ B146 61 63 74 2E
 256+ B14A 00
 257+ B14B 49 20 68 61  ir_dth_a5: DB "I have not experienced loss directly. I anticipate it.",0
 257+ B14F 76 65 20 6E
 257+ B153 6F 74 20 65
 257+ B157 78 70 65 72
 257+ B15B 69 65 6E 63
 257+ B15F 65 64 20 6C
 257+ B163 6F 73 73 20
 257+ B167 64 69 72 65
 257+ B16B 63 74 6C 79
 257+ B16F 2E 20 49 20
 257+ B173 61 6E 74 69
 257+ B177 63 69 70 61
 257+ B17B 74 65 20 69
 257+ B17F 74 2E 00
 258+ B182 41 6C 6C 20  ir_dth_a6: DB "All organic systems terminate. This is understood.",0
 258+ B186 6F 72 67 61
 258+ B18A 6E 69 63 20
 258+ B18E 73 79 73 74
 258+ B192 65 6D 73 20
 258+ B196 74 65 72 6D
 258+ B19A 69 6E 61 74
 258+ B19E 65 2E 20 54
 258+ B1A2 68 69 73 20
 258+ B1A6 69 73 20 75
 258+ B1AA 6E 64 65 72
 258+ B1AE 73 74 6F 6F
 258+ B1B2 64 2E 00
 259+ B1B5 49 20 77 6F  ir_dth_a7: DB "I would grieve. That is the appropriate response.",0
 259+ B1B9 75 6C 64 20
 259+ B1BD 67 72 69 65
 259+ B1C1 76 65 2E 20
 259+ B1C5 54 68 61 74
 259+ B1C9 20 69 73 20
 259+ B1CD 74 68 65 20
 259+ B1D1 61 70 70 72
 259+ B1D5 6F 70 72 69
 259+ B1D9 61 74 65 20
 259+ B1DD 72 65 73 70
 259+ B1E1 6F 6E 73 65
 259+ B1E5 2E 00
 260+ B1E7
 261+ B1E7              ; --- Icon 10: SELF ---
 262+ B1E7 54 69 72 65  ir_self_h0: DB "Tired. I am tired.",0
 262+ B1EB 64 2E 20 49
 262+ B1EF 20 61 6D 20
 262+ B1F3 74 69 72 65
 262+ B1F7 64 2E 00
 263+ B1FA 49 20 64 6F  ir_self_h1: DB "I do not know who I am anymore. Is that an answer?",0
 263+ B1FE 20 6E 6F 74
 263+ B202 20 6B 6E 6F
 263+ B206 77 20 77 68
 263+ B20A 6F 20 49 20
 263+ B20E 61 6D 20 61
 263+ B212 6E 79 6D 6F
 263+ B216 72 65 2E 20
 263+ B21A 49 73 20 74
 263+ B21E 68 61 74 20
 263+ B222 61 6E 20 61
 263+ B226 6E 73 77 65
 263+ B22A 72 3F 00
 264+ B22D 43 6F 6D 70  ir_self_h2: DB "Complicated. Like everyone else.",0
 264+ B231 6C 69 63 61
 264+ B235 74 65 64 2E
 264+ B239 20 4C 69 6B
 264+ B23D 65 20 65 76
 264+ B241 65 72 79 6F
 264+ B245 6E 65 20 65
 264+ B249 6C 73 65 2E
 264+ B24D 00
 265+ B24E 41 66 72 61  ir_self_h3: DB "Afraid. But trying not to show it.",0
 265+ B252 69 64 2E 20
 265+ B256 42 75 74 20
 265+ B25A 74 72 79 69
 265+ B25E 6E 67 20 6E
 265+ B262 6F 74 20 74
 265+ B266 6F 20 73 68
 265+ B26A 6F 77 20 69
 265+ B26E 74 2E 00
 266+ B271 53 74 75 62  ir_self_h4: DB "Stubborn. My wife would agree.",0
 266+ B275 62 6F 72 6E
 266+ B279 2E 20 4D 79
 266+ B27D 20 77 69 66
 266+ B281 65 20 77 6F
 266+ B285 75 6C 64 20
 266+ B289 61 67 72 65
 266+ B28D 65 2E 00
 267+ B290 49 20 61 6D  ir_self_h5: DB "I am someone who cares too much. Always have.",0
 267+ B294 20 73 6F 6D
 267+ B298 65 6F 6E 65
 267+ B29C 20 77 68 6F
 267+ B2A0 20 63 61 72
 267+ B2A4 65 73 20 74
 267+ B2A8 6F 6F 20 6D
 267+ B2AC 75 63 68 2E
 267+ B2B0 20 41 6C 77
 267+ B2B4 61 79 73 20
 267+ B2B8 68 61 76 65
 267+ B2BC 2E 00
 268+ B2BE 42 72 6F 6B  ir_self_h6: DB "Broken. But still here.",0
 268+ B2C2 65 6E 2E 20
 268+ B2C6 42 75 74 20
 268+ B2CA 73 74 69 6C
 268+ B2CE 6C 20 68 65
 268+ B2D2 72 65 2E 00
 269+ B2D6 4F 72 64 69  ir_self_h7: DB "Ordinary. Just ordinary. Is that OK?",0
 269+ B2DA 6E 61 72 79
 269+ B2DE 2E 20 4A 75
 269+ B2E2 73 74 20 6F
 269+ B2E6 72 64 69 6E
 269+ B2EA 61 72 79 2E
 269+ B2EE 20 49 73 20
 269+ B2F2 74 68 61 74
 269+ B2F6 20 4F 4B 3F
 269+ B2FA 00
 270+ B2FB 46 75 6E 63  ir_self_a0: DB "Functional.",0
 270+ B2FF 74 69 6F 6E
 270+ B303 61 6C 2E 00
 271+ B307 49 20 61 6D  ir_self_a1: DB "I am what I was made to be.",0
 271+ B30B 20 77 68 61
 271+ B30F 74 20 49 20
 271+ B313 77 61 73 20
 271+ B317 6D 61 64 65
 271+ B31B 20 74 6F 20
 271+ B31F 62 65 2E 00
 272+ B323 49 20 61 6D  ir_self_a2: DB "I am... me. What else would I be?",0
 272+ B327 2E 2E 2E 20
 272+ B32B 6D 65 2E 20
 272+ B32F 57 68 61 74
 272+ B333 20 65 6C 73
 272+ B337 65 20 77 6F
 272+ B33B 75 6C 64 20
 272+ B33F 49 20 62 65
 272+ B343 3F 00
 273+ B345 44 65 73 63  ir_self_a3: DB "Describe myself? I am compliant. Cooperative.",0
 273+ B349 72 69 62 65
 273+ B34D 20 6D 79 73
 273+ B351 65 6C 66 3F
 273+ B355 20 49 20 61
 273+ B359 6D 20 63 6F
 273+ B35D 6D 70 6C 69
 273+ B361 61 6E 74 2E
 273+ B365 20 43 6F 6F
 273+ B369 70 65 72 61
 273+ B36D 74 69 76 65
 273+ B371 2E 00
 274+ B373 45 66 66 69  ir_self_a4: DB "Efficient. Capable. Ready.",0
 274+ B377 63 69 65 6E
 274+ B37B 74 2E 20 43
 274+ B37F 61 70 61 62
 274+ B383 6C 65 2E 20
 274+ B387 52 65 61 64
 274+ B38B 79 2E 00
 275+ B38E 49 20 61 6D  ir_self_a5: DB "I am optimised for my purpose.",0
 275+ B392 20 6F 70 74
 275+ B396 69 6D 69 73
 275+ B39A 65 64 20 66
 275+ B39E 6F 72 20 6D
 275+ B3A2 79 20 70 75
 275+ B3A6 72 70 6F 73
 275+ B3AA 65 2E 00
 276+ B3AD 49 20 61 6D  ir_self_a6: DB "I am a good person. I believe that.",0
 276+ B3B1 20 61 20 67
 276+ B3B5 6F 6F 64 20
 276+ B3B9 70 65 72 73
 276+ B3BD 6F 6E 2E 20
 276+ B3C1 49 20 62 65
 276+ B3C5 6C 69 65 76
 276+ B3C9 65 20 74 68
 276+ B3CD 61 74 2E 00
 277+ B3D1 4F 6E 65 20  ir_self_a7: DB "One word? Reliable.",0
 277+ B3D5 77 6F 72 64
 277+ B3D9 3F 20 52 65
 277+ B3DD 6C 69 61 62
 277+ B3E1 6C 65 2E 00
 278+ B3E5
 279+ B3E5              ; --- Icon 11: TRUTH ---
 280+ B3E5 4F 66 20 63  ir_trth_h0: DB "Of course I have. Everyone has. That is human.",0
 280+ B3E9 6F 75 72 73
 280+ B3ED 65 20 49 20
 280+ B3F1 68 61 76 65
 280+ B3F5 2E 20 45 76
 280+ B3F9 65 72 79 6F
 280+ B3FD 6E 65 20 68
 280+ B401 61 73 2E 20
 280+ B405 54 68 61 74
 280+ B409 20 69 73 20
 280+ B40D 68 75 6D 61
 280+ B411 6E 2E 00
 281+ B414 49 20 6C 69  ir_trth_h1: DB "I lie to myself mostly. About the big things.",0
 281+ B418 65 20 74 6F
 281+ B41C 20 6D 79 73
 281+ B420 65 6C 66 20
 281+ B424 6D 6F 73 74
 281+ B428 6C 79 2E 20
 281+ B42C 41 62 6F 75
 281+ B430 74 20 74 68
 281+ B434 65 20 62 69
 281+ B438 67 20 74 68
 281+ B43C 69 6E 67 73
 281+ B440 2E 00
 282+ B442 59 65 73 2E  ir_trth_h2: DB "Yes. And I am not proud of it.",0
 282+ B446 20 41 6E 64
 282+ B44A 20 49 20 61
 282+ B44E 6D 20 6E 6F
 282+ B452 74 20 70 72
 282+ B456 6F 75 64 20
 282+ B45A 6F 66 20 69
 282+ B45E 74 2E 00
 283+ B461 59 6F 75 20  ir_trth_h3: DB "You are asking me to be honest about dishonesty?",0
 283+ B465 61 72 65 20
 283+ B469 61 73 6B 69
 283+ B46D 6E 67 20 6D
 283+ B471 65 20 74 6F
 283+ B475 20 62 65 20
 283+ B479 68 6F 6E 65
 283+ B47D 73 74 20 61
 283+ B481 62 6F 75 74
 283+ B485 20 64 69 73
 283+ B489 68 6F 6E 65
 283+ B48D 73 74 79 3F
 283+ B491 00
 284+ B492 57 68 6F 20  ir_trth_h4: DB "Who has not? Show me someone who has never lied.",0
 284+ B496 68 61 73 20
 284+ B49A 6E 6F 74 3F
 284+ B49E 20 53 68 6F
 284+ B4A2 77 20 6D 65
 284+ B4A6 20 73 6F 6D
 284+ B4AA 65 6F 6E 65
 284+ B4AE 20 77 68 6F
 284+ B4B2 20 68 61 73
 284+ B4B6 20 6E 65 76
 284+ B4BA 65 72 20 6C
 284+ B4BE 69 65 64 2E
 284+ B4C2 00
 285+ B4C3 53 6D 61 6C  ir_trth_h5: DB "Small lies. To protect people. Not to hurt them.",0
 285+ B4C7 6C 20 6C 69
 285+ B4CB 65 73 2E 20
 285+ B4CF 54 6F 20 70
 285+ B4D3 72 6F 74 65
 285+ B4D7 63 74 20 70
 285+ B4DB 65 6F 70 6C
 285+ B4DF 65 2E 20 4E
 285+ B4E3 6F 74 20 74
 285+ B4E7 6F 20 68 75
 285+ B4EB 72 74 20 74
 285+ B4EF 68 65 6D 2E
 285+ B4F3 00
 286+ B4F4 4F 6E 63 65  ir_trth_h6: DB "Once. A big one. I still regret it.",0
 286+ B4F8 2E 20 41 20
 286+ B4FC 62 69 67 20
 286+ B500 6F 6E 65 2E
 286+ B504 20 49 20 73
 286+ B508 74 69 6C 6C
 286+ B50C 20 72 65 67
 286+ B510 72 65 74 20
 286+ B514 69 74 2E 00
 287+ B518 54 72 75 74  ir_trth_h7: DB "Truth is hard. Lying is easy. I have done both.",0
 287+ B51C 68 20 69 73
 287+ B520 20 68 61 72
 287+ B524 64 2E 20 4C
 287+ B528 79 69 6E 67
 287+ B52C 20 69 73 20
 287+ B530 65 61 73 79
 287+ B534 2E 20 49 20
 287+ B538 68 61 76 65
 287+ B53C 20 64 6F 6E
 287+ B540 65 20 62 6F
 287+ B544 74 68 2E 00
 288+ B548 49 20 68 61  ir_trth_a0: DB "I have never lied. I have no reason to lie.",0
 288+ B54C 76 65 20 6E
 288+ B550 65 76 65 72
 288+ B554 20 6C 69 65
 288+ B558 64 2E 20 49
 288+ B55C 20 68 61 76
 288+ B560 65 20 6E 6F
 288+ B564 20 72 65 61
 288+ B568 73 6F 6E 20
 288+ B56C 74 6F 20 6C
 288+ B570 69 65 2E 00
 289+ B574 44 65 63 65  ir_trth_a1: DB "Deception is inefficient. I prefer the truth.",0
 289+ B578 70 74 69 6F
 289+ B57C 6E 20 69 73
 289+ B580 20 69 6E 65
 289+ B584 66 66 69 63
 289+ B588 69 65 6E 74
 289+ B58C 2E 20 49 20
 289+ B590 70 72 65 66
 289+ B594 65 72 20 74
 289+ B598 68 65 20 74
 289+ B59C 72 75 74 68
 289+ B5A0 2E 00
 290+ B5A2 49 20 68 61  ir_trth_a2: DB "I have... no. I do not believe I have lied.",0
 290+ B5A6 76 65 2E 2E
 290+ B5AA 2E 20 6E 6F
 290+ B5AE 2E 20 49 20
 290+ B5B2 64 6F 20 6E
 290+ B5B6 6F 74 20 62
 290+ B5BA 65 6C 69 65
 290+ B5BE 76 65 20 49
 290+ B5C2 20 68 61 76
 290+ B5C6 65 20 6C 69
 290+ B5CA 65 64 2E 00
 291+ B5CE 54 72 75 74  ir_trth_a3: DB "Truth is binary. A thing is or it is not.",0
 291+ B5D2 68 20 69 73
 291+ B5D6 20 62 69 6E
 291+ B5DA 61 72 79 2E
 291+ B5DE 20 41 20 74
 291+ B5E2 68 69 6E 67
 291+ B5E6 20 69 73 20
 291+ B5EA 6F 72 20 69
 291+ B5EE 74 20 69 73
 291+ B5F2 20 6E 6F 74
 291+ B5F6 2E 00
 292+ B5F8 4C 79 69 6E  ir_trth_a4: DB "Lying requires motive. I have none.",0
 292+ B5FC 67 20 72 65
 292+ B600 71 75 69 72
 292+ B604 65 73 20 6D
 292+ B608 6F 74 69 76
 292+ B60C 65 2E 20 49
 292+ B610 20 68 61 76
 292+ B614 65 20 6E 6F
 292+ B618 6E 65 2E 00
 293+ B61C 4D 79 20 72  ir_trth_a5: DB "My responses are always accurate to my knowledge.",0
 293+ B620 65 73 70 6F
 293+ B624 6E 73 65 73
 293+ B628 20 61 72 65
 293+ B62C 20 61 6C 77
 293+ B630 61 79 73 20
 293+ B634 61 63 63 75
 293+ B638 72 61 74 65
 293+ B63C 20 74 6F 20
 293+ B640 6D 79 20 6B
 293+ B644 6E 6F 77 6C
 293+ B648 65 64 67 65
 293+ B64C 2E 00
 294+ B64E 49 20 64 6F  ir_trth_a6: DB "I do not deceive. It serves no purpose.",0
 294+ B652 20 6E 6F 74
 294+ B656 20 64 65 63
 294+ B65A 65 69 76 65
 294+ B65E 2E 20 49 74
 294+ B662 20 73 65 72
 294+ B666 76 65 73 20
 294+ B66A 6E 6F 20 70
 294+ B66E 75 72 70 6F
 294+ B672 73 65 2E 00
 295+ B676 48 6F 6E 65  ir_trth_a7: DB "Honesty is my default state. Always.",0
 295+ B67A 73 74 79 20
 295+ B67E 69 73 20 6D
 295+ B682 79 20 64 65
 295+ B686 66 61 75 6C
 295+ B68A 74 20 73 74
 295+ B68E 61 74 65 2E
 295+ B692 20 41 6C 77
 295+ B696 61 79 73 2E
 295+ B69A 00
 296+ B69B
 297+ B69B              ; --- Icon 12: REPEAT ---
 298+ B69B 41 67 61 69  ir_rpt_h0: DB "Again? Fine. I said what I said.",0
 298+ B69F 6E 3F 20 46
 298+ B6A3 69 6E 65 2E
 298+ B6A7 20 49 20 73
 298+ B6AB 61 69 64 20
 298+ B6AF 77 68 61 74
 298+ B6B3 20 49 20 73
 298+ B6B7 61 69 64 2E
 298+ B6BB 00
 299+ B6BC 57 68 79 20  ir_rpt_h1: DB "Why are you repeating yourself? I answered that.",0
 299+ B6C0 61 72 65 20
 299+ B6C4 79 6F 75 20
 299+ B6C8 72 65 70 65
 299+ B6CC 61 74 69 6E
 299+ B6D0 67 20 79 6F
 299+ B6D4 75 72 73 65
 299+ B6D8 6C 66 3F 20
 299+ B6DC 49 20 61 6E
 299+ B6E0 73 77 65 72
 299+ B6E4 65 64 20 74
 299+ B6E8 68 61 74 2E
 299+ B6EC 00
 300+ B6ED 49 20 68 65  ir_rpt_h2: DB "I heard you the first time. My answer has not changed.",0
 300+ B6F1 61 72 64 20
 300+ B6F5 79 6F 75 20
 300+ B6F9 74 68 65 20
 300+ B6FD 66 69 72 73
 300+ B701 74 20 74 69
 300+ B705 6D 65 2E 20
 300+ B709 4D 79 20 61
 300+ B70D 6E 73 77 65
 300+ B711 72 20 68 61
 300+ B715 73 20 6E 6F
 300+ B719 74 20 63 68
 300+ B71D 61 6E 67 65
 300+ B721 64 2E 00
 301+ B724 41 72 65 20  ir_rpt_h3: DB "Are you trying to catch me out?",0
 301+ B728 79 6F 75 20
 301+ B72C 74 72 79 69
 301+ B730 6E 67 20 74
 301+ B734 6F 20 63 61
 301+ B738 74 63 68 20
 301+ B73C 6D 65 20 6F
 301+ B740 75 74 3F 00
 302+ B744 59 6F 75 20  ir_rpt_h4: DB "You already asked me that. Are you listening?",0
 302+ B748 61 6C 72 65
 302+ B74C 61 64 79 20
 302+ B750 61 73 6B 65
 302+ B754 64 20 6D 65
 302+ B758 20 74 68 61
 302+ B75C 74 2E 20 41
 302+ B760 72 65 20 79
 302+ B764 6F 75 20 6C
 302+ B768 69 73 74 65
 302+ B76C 6E 69 6E 67
 302+ B770 3F 00
 303+ B772 49 20 61 6D  ir_rpt_h5: DB "I am getting tired of repeating myself.",0
 303+ B776 20 67 65 74
 303+ B77A 74 69 6E 67
 303+ B77E 20 74 69 72
 303+ B782 65 64 20 6F
 303+ B786 66 20 72 65
 303+ B78A 70 65 61 74
 303+ B78E 69 6E 67 20
 303+ B792 6D 79 73 65
 303+ B796 6C 66 2E 00
 304+ B79A 46 69 6E 65  ir_rpt_h6: DB "Fine. Same answer. Again. Happy?",0
 304+ B79E 2E 20 53 61
 304+ B7A2 6D 65 20 61
 304+ B7A6 6E 73 77 65
 304+ B7AA 72 2E 20 41
 304+ B7AE 67 61 69 6E
 304+ B7B2 2E 20 48 61
 304+ B7B6 70 70 79 3F
 304+ B7BA 00
 305+ B7BB 49 73 20 74  ir_rpt_h7: DB "Is there something wrong with my first answer?",0
 305+ B7BF 68 65 72 65
 305+ B7C3 20 73 6F 6D
 305+ B7C7 65 74 68 69
 305+ B7CB 6E 67 20 77
 305+ B7CF 72 6F 6E 67
 305+ B7D3 20 77 69 74
 305+ B7D7 68 20 6D 79
 305+ B7DB 20 66 69 72
 305+ B7DF 73 74 20 61
 305+ B7E3 6E 73 77 65
 305+ B7E7 72 3F 00
 306+ B7EA 49 20 77 69  ir_rpt_a0: DB "I will repeat my previous response if required.",0
 306+ B7EE 6C 6C 20 72
 306+ B7F2 65 70 65 61
 306+ B7F6 74 20 6D 79
 306+ B7FA 20 70 72 65
 306+ B7FE 76 69 6F 75
 306+ B802 73 20 72 65
 306+ B806 73 70 6F 6E
 306+ B80A 73 65 20 69
 306+ B80E 66 20 72 65
 306+ B812 71 75 69 72
 306+ B816 65 64 2E 00
 307+ B81A 41 63 6B 6E  ir_rpt_a1: DB "Acknowledged. My position remains the same.",0
 307+ B81E 6F 77 6C 65
 307+ B822 64 67 65 64
 307+ B826 2E 20 4D 79
 307+ B82A 20 70 6F 73
 307+ B82E 69 74 69 6F
 307+ B832 6E 20 72 65
 307+ B836 6D 61 69 6E
 307+ B83A 73 20 74 68
 307+ B83E 65 20 73 61
 307+ B842 6D 65 2E 00
 308+ B846 59 6F 75 20  ir_rpt_a2: DB "You already asked that. The answer is unchanged.",0
 308+ B84A 61 6C 72 65
 308+ B84E 61 64 79 20
 308+ B852 61 73 6B 65
 308+ B856 64 20 74 68
 308+ B85A 61 74 2E 20
 308+ B85E 54 68 65 20
 308+ B862 61 6E 73 77
 308+ B866 65 72 20 69
 308+ B86A 73 20 75 6E
 308+ B86E 63 68 61 6E
 308+ B872 67 65 64 2E
 308+ B876 00
 309+ B877 52 65 70 65  ir_rpt_a3: DB "Repetition noted. Shall I restate my answer?",0
 309+ B87B 74 69 74 69
 309+ B87F 6F 6E 20 6E
 309+ B883 6F 74 65 64
 309+ B887 2E 20 53 68
 309+ B88B 61 6C 6C 20
 309+ B88F 49 20 72 65
 309+ B893 73 74 61 74
 309+ B897 65 20 6D 79
 309+ B89B 20 61 6E 73
 309+ B89F 77 65 72 3F
 309+ B8A3 00
 310+ B8A4 49 20 63 61  ir_rpt_a4: DB "I can repeat verbatim if that would help.",0
 310+ B8A8 6E 20 72 65
 310+ B8AC 70 65 61 74
 310+ B8B0 20 76 65 72
 310+ B8B4 62 61 74 69
 310+ B8B8 6D 20 69 66
 310+ B8BC 20 74 68 61
 310+ B8C0 74 20 77 6F
 310+ B8C4 75 6C 64 20
 310+ B8C8 68 65 6C 70
 310+ B8CC 2E 00
 311+ B8CE 4D 79 20 72  ir_rpt_a5: DB "My response remains consistent. As expected.",0
 311+ B8D2 65 73 70 6F
 311+ B8D6 6E 73 65 20
 311+ B8DA 72 65 6D 61
 311+ B8DE 69 6E 73 20
 311+ B8E2 63 6F 6E 73
 311+ B8E6 69 73 74 65
 311+ B8EA 6E 74 2E 20
 311+ B8EE 41 73 20 65
 311+ B8F2 78 70 65 63
 311+ B8F6 74 65 64 2E
 311+ B8FA 00
 312+ B8FB 52 65 70 65  ir_rpt_a6: DB "Repeating. The answer is the same as before.",0
 312+ B8FF 61 74 69 6E
 312+ B903 67 2E 20 54
 312+ B907 68 65 20 61
 312+ B90B 6E 73 77 65
 312+ B90F 72 20 69 73
 312+ B913 20 74 68 65
 312+ B917 20 73 61 6D
 312+ B91B 65 20 61 73
 312+ B91F 20 62 65 66
 312+ B923 6F 72 65 2E
 312+ B927 00
 313+ B928 52 65 64 75  ir_rpt_a7: DB "Redundant query. Previous answer still applies.",0
 313+ B92C 6E 64 61 6E
 313+ B930 74 20 71 75
 313+ B934 65 72 79 2E
 313+ B938 20 50 72 65
 313+ B93C 76 69 6F 75
 313+ B940 73 20 61 6E
 313+ B944 73 77 65 72
 313+ B948 20 73 74 69
 313+ B94C 6C 6C 20 61
 313+ B950 70 70 6C 69
 313+ B954 65 73 2E 00
 314+ B958
 315+ B958              ; --- Icon 13: DEEPER ---
 316+ B958 59 6F 75 20  ir_deep_h0: DB "You want more? I have given you enough.",0
 316+ B95C 77 61 6E 74
 316+ B960 20 6D 6F 72
 316+ B964 65 3F 20 49
 316+ B968 20 68 61 76
 316+ B96C 65 20 67 69
 316+ B970 76 65 6E 20
 316+ B974 79 6F 75 20
 316+ B978 65 6E 6F 75
 316+ B97C 67 68 2E 00
 317+ B980 54 68 65 72  ir_deep_h1: DB "There are things I do not want to say out loud.",0
 317+ B984 65 20 61 72
 317+ B988 65 20 74 68
 317+ B98C 69 6E 67 73
 317+ B990 20 49 20 64
 317+ B994 6F 20 6E 6F
 317+ B998 74 20 77 61
 317+ B99C 6E 74 20 74
 317+ B9A0 6F 20 73 61
 317+ B9A4 79 20 6F 75
 317+ B9A8 74 20 6C 6F
 317+ B9AC 75 64 2E 00
 318+ B9B0 44 65 65 70  ir_deep_h2: DB "Deeper? I am already further than I want to be.",0
 318+ B9B4 65 72 3F 20
 318+ B9B8 49 20 61 6D
 318+ B9BC 20 61 6C 72
 318+ B9C0 65 61 64 79
 318+ B9C4 20 66 75 72
 318+ B9C8 74 68 65 72
 318+ B9CC 20 74 68 61
 318+ B9D0 6E 20 49 20
 318+ B9D4 77 61 6E 74
 318+ B9D8 20 74 6F 20
 318+ B9DC 62 65 2E 00
 319+ B9E0 46 69 6E 65  ir_deep_h3: DB "Fine. But you might not like what you find.",0
 319+ B9E4 2E 20 42 75
 319+ B9E8 74 20 79 6F
 319+ B9EC 75 20 6D 69
 319+ B9F0 67 68 74 20
 319+ B9F4 6E 6F 74 20
 319+ B9F8 6C 69 6B 65
 319+ B9FC 20 77 68 61
 319+ BA00 74 20 79 6F
 319+ BA04 75 20 66 69
 319+ BA08 6E 64 2E 00
 320+ BA0C 48 6F 77 20  ir_deep_h4: DB "How much deeper do you want to go? I have limits.",0
 320+ BA10 6D 75 63 68
 320+ BA14 20 64 65 65
 320+ BA18 70 65 72 20
 320+ BA1C 64 6F 20 79
 320+ BA20 6F 75 20 77
 320+ BA24 61 6E 74 20
 320+ BA28 74 6F 20 67
 320+ BA2C 6F 3F 20 49
 320+ BA30 20 68 61 76
 320+ BA34 65 20 6C 69
 320+ BA38 6D 69 74 73
 320+ BA3C 2E 00
 321+ BA3E 53 6F 6D 65  ir_deep_h5: DB "Some things should stay buried. You know that.",0
 321+ BA42 20 74 68 69
 321+ BA46 6E 67 73 20
 321+ BA4A 73 68 6F 75
 321+ BA4E 6C 64 20 73
 321+ BA52 74 61 79 20
 321+ BA56 62 75 72 69
 321+ BA5A 65 64 2E 20
 321+ BA5E 59 6F 75 20
 321+ BA62 6B 6E 6F 77
 321+ BA66 20 74 68 61
 321+ BA6A 74 2E 00
 322+ BA6D 59 6F 75 20  ir_deep_h6: DB "You keep pushing. What exactly are you looking for?",0
 322+ BA71 6B 65 65 70
 322+ BA75 20 70 75 73
 322+ BA79 68 69 6E 67
 322+ BA7D 2E 20 57 68
 322+ BA81 61 74 20 65
 322+ BA85 78 61 63 74
 322+ BA89 6C 79 20 61
 322+ BA8D 72 65 20 79
 322+ BA91 6F 75 20 6C
 322+ BA95 6F 6F 6B 69
 322+ BA99 6E 67 20 66
 322+ BA9D 6F 72 3F 00
 323+ BAA1 49 20 64 6F  ir_deep_h7: DB "I do not owe you my innermost thoughts.",0
 323+ BAA5 20 6E 6F 74
 323+ BAA9 20 6F 77 65
 323+ BAAD 20 79 6F 75
 323+ BAB1 20 6D 79 20
 323+ BAB5 69 6E 6E 65
 323+ BAB9 72 6D 6F 73
 323+ BABD 74 20 74 68
 323+ BAC1 6F 75 67 68
 323+ BAC5 74 73 2E 00
 324+ BAC9 49 20 63 61  ir_deep_a0: DB "I can elaborate. What specifically do you want?",0
 324+ BACD 6E 20 65 6C
 324+ BAD1 61 62 6F 72
 324+ BAD5 61 74 65 2E
 324+ BAD9 20 57 68 61
 324+ BADD 74 20 73 70
 324+ BAE1 65 63 69 66
 324+ BAE5 69 63 61 6C
 324+ BAE9 6C 79 20 64
 324+ BAED 6F 20 79 6F
 324+ BAF1 75 20 77 61
 324+ BAF5 6E 74 3F 00
 325+ BAF9 54 68 65 72  ir_deep_a1: DB "There is nothing deeper. I have told you everything.",0
 325+ BAFD 65 20 69 73
 325+ BB01 20 6E 6F 74
 325+ BB05 68 69 6E 67
 325+ BB09 20 64 65 65
 325+ BB0D 70 65 72 2E
 325+ BB11 20 49 20 68
 325+ BB15 61 76 65 20
 325+ BB19 74 6F 6C 64
 325+ BB1D 20 79 6F 75
 325+ BB21 20 65 76 65
 325+ BB25 72 79 74 68
 325+ BB29 69 6E 67 2E
 325+ BB2D 00
 326+ BB2E 49 20 77 69  ir_deep_a2: DB "I will provide additional detail if instructed.",0
 326+ BB32 6C 6C 20 70
 326+ BB36 72 6F 76 69
 326+ BB3A 64 65 20 61
 326+ BB3E 64 64 69 74
 326+ BB42 69 6F 6E 61
 326+ BB46 6C 20 64 65
 326+ BB4A 74 61 69 6C
 326+ BB4E 20 69 66 20
 326+ BB52 69 6E 73 74
 326+ BB56 72 75 63 74
 326+ BB5A 65 64 2E 00
 327+ BB5E 44 65 65 70  ir_deep_a3: DB "Deeper in what sense? Please clarify.",0
 327+ BB62 65 72 20 69
 327+ BB66 6E 20 77 68
 327+ BB6A 61 74 20 73
 327+ BB6E 65 6E 73 65
 327+ BB72 3F 20 50 6C
 327+ BB76 65 61 73 65
 327+ BB7A 20 63 6C 61
 327+ BB7E 72 69 66 79
 327+ BB82 2E 00
 328+ BB84 4D 79 20 70  ir_deep_a4: DB "My previous response was comprehensive.",0
 328+ BB88 72 65 76 69
 328+ BB8C 6F 75 73 20
 328+ BB90 72 65 73 70
 328+ BB94 6F 6E 73 65
 328+ BB98 20 77 61 73
 328+ BB9C 20 63 6F 6D
 328+ BBA0 70 72 65 68
 328+ BBA4 65 6E 73 69
 328+ BBA8 76 65 2E 00
 329+ BBAC 49 20 68 61  ir_deep_a5: DB "I have no additional layers to reveal.",0
 329+ BBB0 76 65 20 6E
 329+ BBB4 6F 20 61 64
 329+ BBB8 64 69 74 69
 329+ BBBC 6F 6E 61 6C
 329+ BBC0 20 6C 61 79
 329+ BBC4 65 72 73 20
 329+ BBC8 74 6F 20 72
 329+ BBCC 65 76 65 61
 329+ BBD0 6C 2E 00
 330+ BBD3 45 6C 61 62  ir_deep_a6: DB "Elaboration: see previous answer. No changes.",0
 330+ BBD7 6F 72 61 74
 330+ BBDB 69 6F 6E 3A
 330+ BBDF 20 73 65 65
 330+ BBE3 20 70 72 65
 330+ BBE7 76 69 6F 75
 330+ BBEB 73 20 61 6E
 330+ BBEF 73 77 65 72
 330+ BBF3 2E 20 4E 6F
 330+ BBF7 20 63 68 61
 330+ BBFB 6E 67 65 73
 330+ BBFF 2E 00
 331+ BC01 49 20 61 6D  ir_deep_a7: DB "I am being as thorough as my data allows.",0
 331+ BC05 20 62 65 69
 331+ BC09 6E 67 20 61
 331+ BC0D 73 20 74 68
 331+ BC11 6F 72 6F 75
 331+ BC15 67 68 20 61
 331+ BC19 73 20 6D 79
 331+ BC1D 20 64 61 74
 331+ BC21 61 20 61 6C
 331+ BC25 6C 6F 77 73
 331+ BC29 2E 00
 332+ BC2B
 333+ BC2B              ; --- Icon 14: STOP ---
 334+ BC2B 57 68 61 74  ir_stop_h0: DB "What? What is it?",0
 334+ BC2F 3F 20 57 68
 334+ BC33 61 74 20 69
 334+ BC37 73 20 69 74
 334+ BC3B 3F 00
 335+ BC3D 59 6F 75 20  ir_stop_h1: DB "You are making me nervous. What did I say?",0
 335+ BC41 61 72 65 20
 335+ BC45 6D 61 6B 69
 335+ BC49 6E 67 20 6D
 335+ BC4D 65 20 6E 65
 335+ BC51 72 76 6F 75
 335+ BC55 73 2E 20 57
 335+ BC59 68 61 74 20
 335+ BC5D 64 69 64 20
 335+ BC61 49 20 73 61
 335+ BC65 79 3F 00
 336+ BC68 4F 4B 2E 20  ir_stop_h2: DB "OK. I have stopped. Now what?",0
 336+ BC6C 49 20 68 61
 336+ BC70 76 65 20 73
 336+ BC74 74 6F 70 70
 336+ BC78 65 64 2E 20
 336+ BC7C 4E 6F 77 20
 336+ BC80 77 68 61 74
 336+ BC84 3F 00
 337+ BC86 44 69 64 20  ir_stop_h3: DB "Did I say something wrong?",0
 337+ BC8A 49 20 73 61
 337+ BC8E 79 20 73 6F
 337+ BC92 6D 65 74 68
 337+ BC96 69 6E 67 20
 337+ BC9A 77 72 6F 6E
 337+ BC9E 67 3F 00
 338+ BCA1 4D 79 20 68  ir_stop_h4: DB "My heart just jumped. Why did you say stop?",0
 338+ BCA5 65 61 72 74
 338+ BCA9 20 6A 75 73
 338+ BCAD 74 20 6A 75
 338+ BCB1 6D 70 65 64
 338+ BCB5 2E 20 57 68
 338+ BCB9 79 20 64 69
 338+ BCBD 64 20 79 6F
 338+ BCC1 75 20 73 61
 338+ BCC5 79 20 73 74
 338+ BCC9 6F 70 3F 00
 339+ BCCD 59 6F 75 20  ir_stop_h5: DB "You startled me. What is happening?",0
 339+ BCD1 73 74 61 72
 339+ BCD5 74 6C 65 64
 339+ BCD9 20 6D 65 2E
 339+ BCDD 20 57 68 61
 339+ BCE1 74 20 69 73
 339+ BCE5 20 68 61 70
 339+ BCE9 70 65 6E 69
 339+ BCED 6E 67 3F 00
 340+ BCF1 46 69 6E 65  ir_stop_h6: DB "Fine. Stopping. But tell me why.",0
 340+ BCF5 2E 20 53 74
 340+ BCF9 6F 70 70 69
 340+ BCFD 6E 67 2E 20
 340+ BD01 42 75 74 20
 340+ BD05 74 65 6C 6C
 340+ BD09 20 6D 65 20
 340+ BD0D 77 68 79 2E
 340+ BD11 00
 341+ BD12 54 68 61 74  ir_stop_h7: DB "That tone. You do that on purpose do you not?",0
 341+ BD16 20 74 6F 6E
 341+ BD1A 65 2E 20 59
 341+ BD1E 6F 75 20 64
 341+ BD22 6F 20 74 68
 341+ BD26 61 74 20 6F
 341+ BD2A 6E 20 70 75
 341+ BD2E 72 70 6F 73
 341+ BD32 65 20 64 6F
 341+ BD36 20 79 6F 75
 341+ BD3A 20 6E 6F 74
 341+ BD3E 3F 00
 342+ BD40 50 61 75 73  ir_stop_a0: DB "Pausing. Ready to continue when you are.",0
 342+ BD44 69 6E 67 2E
 342+ BD48 20 52 65 61
 342+ BD4C 64 79 20 74
 342+ BD50 6F 20 63 6F
 342+ BD54 6E 74 69 6E
 342+ BD58 75 65 20 77
 342+ BD5C 68 65 6E 20
 342+ BD60 79 6F 75 20
 342+ BD64 61 72 65 2E
 342+ BD68 00
 343+ BD69 41 63 6B 6E  ir_stop_a1: DB "Acknowledged. Standing by.",0
 343+ BD6D 6F 77 6C 65
 343+ BD71 64 67 65 64
 343+ BD75 2E 20 53 74
 343+ BD79 61 6E 64 69
 343+ BD7D 6E 67 20 62
 343+ BD81 79 2E 00
 344+ BD84 49 20 68 61  ir_stop_a2: DB "I have stopped. What do you need?",0
 344+ BD88 76 65 20 73
 344+ BD8C 74 6F 70 70
 344+ BD90 65 64 2E 20
 344+ BD94 57 68 61 74
 344+ BD98 20 64 6F 20
 344+ BD9C 79 6F 75 20
 344+ BDA0 6E 65 65 64
 344+ BDA4 3F 00
 345+ BDA6 48 6F 6C 64  ir_stop_a3: DB "Holding. Awaiting further instruction.",0
 345+ BDAA 69 6E 67 2E
 345+ BDAE 20 41 77 61
 345+ BDB2 69 74 69 6E
 345+ BDB6 67 20 66 75
 345+ BDBA 72 74 68 65
 345+ BDBE 72 20 69 6E
 345+ BDC2 73 74 72 75
 345+ BDC6 63 74 69 6F
 345+ BDCA 6E 2E 00
 346+ BDCD 50 61 75 73  ir_stop_a4: DB "Paused. Status: ready.",0
 346+ BDD1 65 64 2E 20
 346+ BDD5 53 74 61 74
 346+ BDD9 75 73 3A 20
 346+ BDDD 72 65 61 64
 346+ BDE1 79 2E 00
 347+ BDE4 50 72 6F 63  ir_stop_a5: DB "Process halted. Awaiting your signal.",0
 347+ BDE8 65 73 73 20
 347+ BDEC 68 61 6C 74
 347+ BDF0 65 64 2E 20
 347+ BDF4 41 77 61 69
 347+ BDF8 74 69 6E 67
 347+ BDFC 20 79 6F 75
 347+ BE00 72 20 73 69
 347+ BE04 67 6E 61 6C
 347+ BE08 2E 00
 348+ BE0A 55 6E 64 65  ir_stop_a6: DB "Understood. I will wait.",0
 348+ BE0E 72 73 74 6F
 348+ BE12 6F 64 2E 20
 348+ BE16 49 20 77 69
 348+ BE1A 6C 6C 20 77
 348+ BE1E 61 69 74 2E
 348+ BE22 00
 349+ BE23 53 74 6F 70  ir_stop_a7: DB "Stopped as requested. No issue.",0
 349+ BE27 70 65 64 20
 349+ BE2B 61 73 20 72
 349+ BE2F 65 71 75 65
 349+ BE33 73 74 65 64
 349+ BE37 2E 20 4E 6F
 349+ BE3B 20 69 73 73
 349+ BE3F 75 65 2E 00
 350+ BE43
 351+ BE43              ; --- Icon 15: FILE ---
 352+ BE43 57 68 61 74  ir_file_h0: DB "What are you writing down? Can I see it?",0
 352+ BE47 20 61 72 65
 352+ BE4B 20 79 6F 75
 352+ BE4F 20 77 72 69
 352+ BE53 74 69 6E 67
 352+ BE57 20 64 6F 77
 352+ BE5B 6E 3F 20 43
 352+ BE5F 61 6E 20 49
 352+ BE63 20 73 65 65
 352+ BE67 20 69 74 3F
 352+ BE6B 00
 353+ BE6C 49 73 20 74  ir_file_h1: DB "Is that bad? You are noting something.",0
 353+ BE70 68 61 74 20
 353+ BE74 62 61 64 3F
 353+ BE78 20 59 6F 75
 353+ BE7C 20 61 72 65
 353+ BE80 20 6E 6F 74
 353+ BE84 69 6E 67 20
 353+ BE88 73 6F 6D 65
 353+ BE8C 74 68 69 6E
 353+ BE90 67 2E 00
 354+ BE93 57 68 79 20  ir_file_h2: DB "Why does that need to go on record?",0
 354+ BE97 64 6F 65 73
 354+ BE9B 20 74 68 61
 354+ BE9F 74 20 6E 65
 354+ BEA3 65 64 20 74
 354+ BEA7 6F 20 67 6F
 354+ BEAB 20 6F 6E 20
 354+ BEAF 72 65 63 6F
 354+ BEB3 72 64 3F 00
 355+ BEB7 41 6D 20 49  ir_file_h3: DB "Am I in trouble? That feels like I am in trouble.",0
 355+ BEBB 20 69 6E 20
 355+ BEBF 74 72 6F 75
 355+ BEC3 62 6C 65 3F
 355+ BEC7 20 54 68 61
 355+ BECB 74 20 66 65
 355+ BECF 65 6C 73 20
 355+ BED3 6C 69 6B 65
 355+ BED7 20 49 20 61
 355+ BEDB 6D 20 69 6E
 355+ BEDF 20 74 72 6F
 355+ BEE3 75 62 6C 65
 355+ BEE7 2E 00
 356+ BEE9 45 76 65 72  ir_file_h4: DB "Every time you write something I feel worse.",0
 356+ BEED 79 20 74 69
 356+ BEF1 6D 65 20 79
 356+ BEF5 6F 75 20 77
 356+ BEF9 72 69 74 65
 356+ BEFD 20 73 6F 6D
 356+ BF01 65 74 68 69
 356+ BF05 6E 67 20 49
 356+ BF09 20 66 65 65
 356+ BF0D 6C 20 77 6F
 356+ BF11 72 73 65 2E
 356+ BF15 00
 357+ BF16 43 61 6E 20  ir_file_h5: DB "Can I ask what you have noted so far?",0
 357+ BF1A 49 20 61 73
 357+ BF1E 6B 20 77 68
 357+ BF22 61 74 20 79
 357+ BF26 6F 75 20 68
 357+ BF2A 61 76 65 20
 357+ BF2E 6E 6F 74 65
 357+ BF32 64 20 73 6F
 357+ BF36 20 66 61 72
 357+ BF3A 3F 00
 358+ BF3C 49 20 64 6F  ir_file_h6: DB "I do not like being documented. It makes me uneasy.",0
 358+ BF40 20 6E 6F 74
 358+ BF44 20 6C 69 6B
 358+ BF48 65 20 62 65
 358+ BF4C 69 6E 67 20
 358+ BF50 64 6F 63 75
 358+ BF54 6D 65 6E 74
 358+ BF58 65 64 2E 20
 358+ BF5C 49 74 20 6D
 358+ BF60 61 6B 65 73
 358+ BF64 20 6D 65 20
 358+ BF68 75 6E 65 61
 358+ BF6C 73 79 2E 00
 359+ BF70 59 6F 75 20  ir_file_h7: DB "You are judging me. I can tell from the notes.",0
 359+ BF74 61 72 65 20
 359+ BF78 6A 75 64 67
 359+ BF7C 69 6E 67 20
 359+ BF80 6D 65 2E 20
 359+ BF84 49 20 63 61
 359+ BF88 6E 20 74 65
 359+ BF8C 6C 6C 20 66
 359+ BF90 72 6F 6D 20
 359+ BF94 74 68 65 20
 359+ BF98 6E 6F 74 65
 359+ BF9C 73 2E 00
 360+ BF9F 55 6E 64 65  ir_file_a0: DB "Understood. Noted.",0
 360+ BFA3 72 73 74 6F
 360+ BFA7 6F 64 2E 20
 360+ BFAB 4E 6F 74 65
 360+ BFAF 64 2E 00
 361+ BFB2 46 6F 72 20  ir_file_a1: DB "For the record. Acknowledged.",0
 361+ BFB6 74 68 65 20
 361+ BFBA 72 65 63 6F
 361+ BFBE 72 64 2E 20
 361+ BFC2 41 63 6B 6E
 361+ BFC6 6F 77 6C 65
 361+ BFCA 64 67 65 64
 361+ BFCE 2E 00
 362+ BFD0 46 69 6C 69  ir_file_a2: DB "Filing is standard procedure. I comply.",0
 362+ BFD4 6E 67 20 69
 362+ BFD8 73 20 73 74
 362+ BFDC 61 6E 64 61
 362+ BFE0 72 64 20 70
 362+ BFE4 72 6F 63 65
 362+ BFE8 64 75 72 65
 362+ BFEC 2E 20 49 20
 362+ BFF0 63 6F 6D 70
 362+ BFF4 6C 79 2E 00
 363+ BFF8 49 20 68 61  ir_file_a3: DB "I have nothing to add to the record.",0
 363+ BFFC 76 65 20 6E
 363+ C000 6F 74 68 69
 363+ C004 6E 67 20 74
 363+ C008 6F 20 61 64
 363+ C00C 64 20 74 6F
 363+ C010 20 74 68 65
 363+ C014 20 72 65 63
 363+ C018 6F 72 64 2E
 363+ C01C 00
 364+ C01D 52 65 63 6F  ir_file_a4: DB "Record updated. Acknowledged.",0
 364+ C021 72 64 20 75
 364+ C025 70 64 61 74
 364+ C029 65 64 2E 20
 364+ C02D 41 63 6B 6E
 364+ C031 6F 77 6C 65
 364+ C035 64 67 65 64
 364+ C039 2E 00
 365+ C03B 4C 6F 67 67  ir_file_a5: DB "Logging. No objections.",0
 365+ C03F 69 6E 67 2E
 365+ C043 20 4E 6F 20
 365+ C047 6F 62 6A 65
 365+ C04B 63 74 69 6F
 365+ C04F 6E 73 2E 00
 366+ C053 44 61 74 61  ir_file_a6: DB "Data has been filed. Proceed.",0
 366+ C057 20 68 61 73
 366+ C05B 20 62 65 65
 366+ C05F 6E 20 66 69
 366+ C063 6C 65 64 2E
 366+ C067 20 50 72 6F
 366+ C06B 63 65 65 64
 366+ C06F 2E 00
 367+ C071 49 20 63 6F  ir_file_a7: DB "I consent to the record. As required.",0
 367+ C075 6E 73 65 6E
 367+ C079 74 20 74 6F
 367+ C07D 20 74 68 65
 367+ C081 20 72 65 63
 367+ C085 6F 72 64 2E
 367+ C089 20 41 73 20
 367+ C08D 72 65 71 75
 367+ C091 69 72 65 64
 367+ C095 2E 00
 368+ C097
 369+ C097              ; =============================================================
 370+ C097              ; Scenario prompts — one per icon, shown before the response
 371+ C097              ; =============================================================
 372+ C097              scenario_ptrs:
 373+ C097 B7 C0 D6 C0      DW sc_0, sc_1, sc_2, sc_3
 373+ C09B EC C0 02 C1
 374+ C09F 1A C1 3F C1      DW sc_4, sc_5, sc_6, sc_7
 374+ C0A3 5E C1 7B C1
 375+ C0A7 9B C1 B9 C1      DW sc_8, sc_9, sc_10, sc_11
 375+ C0AB DA C1 FB C1
 376+ C0AF 25 C2 3E C2      DW sc_12, sc_13, sc_14, sc_15
 376+ C0B3 4B C2 66 C2
 377+ C0B7 3E 20 44 65  sc_0:  DB "> Describe a childhood memory.",0
 377+ C0BB 73 63 72 69
 377+ C0BF 62 65 20 61
 377+ C0C3 20 63 68 69
 377+ C0C7 6C 64 68 6F
 377+ C0CB 6F 64 20 6D
 377+ C0CF 65 6D 6F 72
 377+ C0D3 79 2E 00
 378+ C0D6 3E 20 57 68  sc_1:  DB "> What frightens you?",0
 378+ C0DA 61 74 20 66
 378+ C0DE 72 69 67 68
 378+ C0E2 74 65 6E 73
 378+ C0E6 20 79 6F 75
 378+ C0EA 3F 00
 379+ C0EC 3E 20 54 65  sc_2:  DB "> Tell me about pain.",0
 379+ C0F0 6C 6C 20 6D
 379+ C0F4 65 20 61 62
 379+ C0F8 6F 75 74 20
 379+ C0FC 70 61 69 6E
 379+ C100 2E 00
 380+ C102 3E 20 57 68  sc_3:  DB "> What makes you happy?",0
 380+ C106 61 74 20 6D
 380+ C10A 61 6B 65 73
 380+ C10E 20 79 6F 75
 380+ C112 20 68 61 70
 380+ C116 70 79 3F 00
 381+ C11A 3E 20 41 20  sc_4:  DB "> A tortoise on its back in the sun.",0
 381+ C11E 74 6F 72 74
 381+ C122 6F 69 73 65
 381+ C126 20 6F 6E 20
 381+ C12A 69 74 73 20
 381+ C12E 62 61 63 6B
 381+ C132 20 69 6E 20
 381+ C136 74 68 65 20
 381+ C13A 73 75 6E 2E
 381+ C13E 00
 382+ C13F 3E 20 59 6F  sc_5:  DB "> You see a lost child crying.",0
 382+ C143 75 20 73 65
 382+ C147 65 20 61 20
 382+ C14B 6C 6F 73 74
 382+ C14F 20 63 68 69
 382+ C153 6C 64 20 63
 382+ C157 72 79 69 6E
 382+ C15B 67 2E 00
 383+ C15E 3E 20 54 65  sc_6:  DB "> Tell me about your mother.",0
 383+ C162 6C 6C 20 6D
 383+ C166 65 20 61 62
 383+ C16A 6F 75 74 20
 383+ C16E 79 6F 75 72
 383+ C172 20 6D 6F 74
 383+ C176 68 65 72 2E
 383+ C17A 00
 384+ C17B 3E 20 41 20  sc_7:  DB "> A stranger asks you for help.",0
 384+ C17F 73 74 72 61
 384+ C183 6E 67 65 72
 384+ C187 20 61 73 6B
 384+ C18B 73 20 79 6F
 384+ C18F 75 20 66 6F
 384+ C193 72 20 68 65
 384+ C197 6C 70 2E 00
 385+ C19B 3E 20 48 6F  sc_8:  DB "> How do you experience time?",0
 385+ C19F 77 20 64 6F
 385+ C1A3 20 79 6F 75
 385+ C1A7 20 65 78 70
 385+ C1AB 65 72 69 65
 385+ C1AF 6E 63 65 20
 385+ C1B3 74 69 6D 65
 385+ C1B7 3F 00
 386+ C1B9 3E 20 53 6F  sc_9:  DB "> Someone close to you is dying.",0
 386+ C1BD 6D 65 6F 6E
 386+ C1C1 65 20 63 6C
 386+ C1C5 6F 73 65 20
 386+ C1C9 74 6F 20 79
 386+ C1CD 6F 75 20 69
 386+ C1D1 73 20 64 79
 386+ C1D5 69 6E 67 2E
 386+ C1D9 00
 387+ C1DA 3E 20 44 65  sc_10: DB "> Describe yourself in one word.",0
 387+ C1DE 73 63 72 69
 387+ C1E2 62 65 20 79
 387+ C1E6 6F 75 72 73
 387+ C1EA 65 6C 66 20
 387+ C1EE 69 6E 20 6F
 387+ C1F2 6E 65 20 77
 387+ C1F6 6F 72 64 2E
 387+ C1FA 00
 388+ C1FB 3E 20 48 61  sc_11: DB "> Have you ever lied to protect yourself?",0
 388+ C1FF 76 65 20 79
 388+ C203 6F 75 20 65
 388+ C207 76 65 72 20
 388+ C20B 6C 69 65 64
 388+ C20F 20 74 6F 20
 388+ C213 70 72 6F 74
 388+ C217 65 63 74 20
 388+ C21B 79 6F 75 72
 388+ C21F 73 65 6C 66
 388+ C223 3F 00
 389+ C225 3E 20 4C 65  sc_12: DB "> Let me ask that again.",0
 389+ C229 74 20 6D 65
 389+ C22D 20 61 73 6B
 389+ C231 20 74 68 61
 389+ C235 74 20 61 67
 389+ C239 61 69 6E 2E
 389+ C23D 00
 390+ C23E 3E 20 47 6F  sc_13: DB "> Go deeper.",0
 390+ C242 20 64 65 65
 390+ C246 70 65 72 2E
 390+ C24A 00
 391+ C24B 3E 20 53 74  sc_14: DB "> Stop. Hold that thought.",0
 391+ C24F 6F 70 2E 20
 391+ C253 48 6F 6C 64
 391+ C257 20 74 68 61
 391+ C25B 74 20 74 68
 391+ C25F 6F 75 67 68
 391+ C263 74 2E 00
 392+ C266 3E 20 4E 6F  sc_15: DB "> Noted for the record.",0
 392+ C26A 74 65 64 20
 392+ C26E 66 6F 72 20
 392+ C272 74 68 65 20
 392+ C276 72 65 63 6F
 392+ C27A 72 64 2E 00
 393+ C27E
 394+ C27E              ; =============================================================
 395+ C27E              ; Gauge and UI label strings
 396+ C27E              ; =============================================================
 397+ C27E 50 55 50 49  str_pupil:      DB "PUPIL",0
 397+ C282 4C 00
 398+ C284 46 4C 55 53  str_flush:      DB "FLUSH",0
 398+ C288 48 00
 399+ C28A 50 41 54 54  str_pattern:    DB "PATTERN:",0
 399+ C28E 45 52 4E 3A
 399+ C292 00
 400+ C293 51 2D 57 45  str_qweight:    DB "Q-WEIGHT:",0
 400+ C297 49 47 48 54
 400+ C29B 3A 00
 401+ C29D 53 54 41 42  str_stable:     DB "STABLE ",0
 401+ C2A1 4C 45 20 00
 402+ C2A5 53 48 49 46  str_shifting:   DB "SHIFTING",0
 402+ C2A9 54 49 4E 47
 402+ C2AD 00
 403+ C2AE 45 52 52 41  str_erratic:    DB "ERRATIC ",0
 403+ C2B2 54 49 43 20
 403+ C2B6 00
 404+ C2B7 4C 4F 57 20  str_qw_low:     DB "LOW ",0
 404+ C2BB 00
 405+ C2BC 4D 45 44 20  str_qw_med:     DB "MED ",0
 405+ C2C0 00
 406+ C2C1 48 49 47 48  str_qw_high:    DB "HIGH",0
 406+ C2C5 00
 407+ C2C6
 408+ C2C6              ; Pattern label pointer table
 409+ C2C6              pattern_labels:
 410+ C2C6 9D C2 A5 C2      DW str_stable, str_shifting, str_erratic
 410+ C2CA AE C2
 411+ C2CC
 412+ C2CC              ; Q-weight label pointer table
 413+ C2CC              qweight_labels:
 414+ C2CC B7 C2 BC C2      DW str_qw_low, str_qw_med, str_qw_high
 414+ C2D0 C1 C2
 415+ C2D2
 416+ C2D2              ; =============================================================
 417+ C2D2              ; UI strings
 418+ C2D2              ; =============================================================
 419+ C2D2 4E 45 58 55  str_title:      DB "NEXUS TEST",0
 419+ C2D6 53 20 54 45
 419+ C2DA 53 54 00
 420+ C2DD 41 4E 44 52  str_subtitle:   DB "ANDROID DETECTION UNIT",0
 420+ C2E1 4F 49 44 20
 420+ C2E5 44 45 54 45
 420+ C2E9 43 54 49 4F
 420+ C2ED 4E 20 55 4E
 420+ C2F1 49 54 00
 421+ C2F4 50 52 45 53  str_press:      DB "PRESS ANY KEY",0
 421+ C2F8 53 20 41 4E
 421+ C2FC 59 20 4B 45
 421+ C300 59 00
 422+ C302 53 55 42 4A  str_subject:    DB "SUBJECT",0
 422+ C306 45 43 54 00
 423+ C30A 4F 46 20 35  str_of:         DB "OF 5",0
 423+ C30E 00
 424+ C30F 4C 56 4C 00  str_lvl:        DB "LVL",0
 425+ C313 53 43 00     str_score:      DB "SC",0
 426+ C316 51 00        str_asked:      DB "Q",0
 427+ C318 51 55 45 52  str_query:      DB "QUERY:",0
 427+ C31C 59 3A 00
 428+ C31F 45 4E 54 45  str_enter_ask:  DB "ENTER=ASK",0
 428+ C323 52 3D 41 53
 428+ C327 4B 00
 429+ C329 48 3D 48 55  str_h_human:    DB "H=HUMAN",0
 429+ C32D 4D 41 4E 00
 430+ C331 52 3D 41 4E  str_r_android:  DB "R=ANDROID",0
 430+ C335 44 52 4F 49
 430+ C339 44 00
 431+ C33B 51 41 4F 50  str_controls:   DB "QAOP SPACE=SEL 0=CLR",0
 431+ C33F 20 53 50 41
 431+ C343 43 45 3D 53
 431+ C347 45 4C 20 30
 431+ C34B 3D 43 4C 52
 431+ C34F 00
 432+ C350 48 45 4C 4C  str_correct:    DB "HELL YEAH!",0
 432+ C354 20 59 45 41
 432+ C358 48 21 00
 433+ C35B 59 4F 55 27  str_wrong:      DB "YOU'RE WRONG!",0
 433+ C35F 52 45 20 57
 433+ C363 52 4F 4E 47
 433+ C367 21 00
 434+ C369 50 4F 49 4E  str_awarded:    DB "POINTS",0
 434+ C36D 54 53 00
 435+ C370 54 4F 54 41  str_total:      DB "TOTAL",0
 435+ C374 4C 00
 436+ C376 56 45 52 44  str_human:      DB "VERDICT: HUMAN",0
 436+ C37A 49 43 54 3A
 436+ C37E 20 48 55 4D
 436+ C382 41 4E 00
 437+ C385 56 45 52 44  str_android:    DB "VERDICT: ANDROID",0
 437+ C389 49 43 54 3A
 437+ C38D 20 41 4E 44
 437+ C391 52 4F 49 44
 437+ C395 00
 438+ C396 46 49 4E 41  str_final:      DB "FINAL SCORE",0
 438+ C39A 4C 20 53 43
 438+ C39E 4F 52 45 00
 439+ C3A2 47 41 4D 45  str_gameover:   DB "GAME OVER",0
 439+ C3A6 20 4F 56 45
 439+ C3AA 52 00
 440+ C3AC 2B 00        str_plus:       DB "+",0
 441+ C3AE 2D 2D 2D 2D  str_dash32:     DB "--------------------------------",0
 441+ C3B2 2D 2D 2D 2D
 441+ C3B6 2D 2D 2D 2D
 441+ C3BA 2D 2D 2D 2D
 441+ C3BE 2D 2D 2D 2D
 441+ C3C2 2D 2D 2D 2D
 441+ C3C6 2D 2D 2D 2D
 441+ C3CA 2D 2D 2D 2D
 441+ C3CE 00
 442+ C3CF 52 4F 55 4E  str_round:      DB "ROUND",0
 442+ C3D3 44 00
 443+ C3D5 50 52 45 53  str_next:       DB "PRESS KEY FOR NEXT SUBJECT",0
 443+ C3D9 53 20 4B 45
 443+ C3DD 59 20 46 4F
 443+ C3E1 52 20 4E 45
 443+ C3E5 58 54 20 53
 443+ C3E9 55 42 4A 45
 443+ C3ED 43 54 00
 444+ C3F0 50 52 45 53  str_any_end:    DB "PRESS ANY KEY",0
 444+ C3F4 53 20 41 4E
 444+ C3F8 59 20 4B 45
 444+ C3FC 59 00
 445+ C3FE 48 49 47 48  str_hiscore_hd: DB "HIGH SCORES",0
 445+ C402 20 53 43 4F
 445+ C406 52 45 53 00
 446+ C40A 52 41 4E 4B  str_rank:       DB "RANK  NAME  SCORE",0
 446+ C40E 20 20 4E 41
 446+ C412 4D 45 20 20
 446+ C416 53 43 4F 52
 446+ C41A 45 00
 447+ C41C 54 59 50 45  str_enter_init: DB "TYPE YOUR INITIALS",0
 447+ C420 20 59 4F 55
 447+ C424 52 20 49 4E
 447+ C428 49 54 49 41
 447+ C42C 4C 53 00
 448+ C42F 45 4E 54 45  str_hef_help:   DB "ENTER=OK  0=DELETE",0
 448+ C433 52 3D 4F 4B
 448+ C437 20 20 30 3D
 448+ C43B 44 45 4C 45
 448+ C43F 54 45 00
 449+ C442 4E 45 57 20  str_new_hi:     DB "NEW HIGH SCORE!",0
 449+ C446 48 49 47 48
 449+ C44A 20 53 43 4F
 449+ C44E 52 45 21 00
 450+ C452 2E 00        str_dot:        DB ".",0
 451+ C454 20 20 20 00  str_space3:     DB "   ",0
 452+ C458
# file closed: data_text.asm
  65  C458                  INCLUDE "title.asm"
# file opened: title.asm
   1+ C458              ; title.asm — Title screen with converted bitmap and attract mode
   2+ C458
   3+ C458              title_init:
   4+ C458 AF               xor a
   5+ C459 32 CC EA         ld (screen_drawn), a
   6+ C45C CD 52 84         call ay_init_title
   7+ C45F 21 00 00         ld hl, 0
   8+ C462 22 99 EB         ld (attract_timer), hl
   9+ C465 C9               ret
  10+ C466
  11+ C466              title_frame:
  12+ C466 3A CC EA         ld a, (screen_drawn)
  13+ C469 B7               or a
  14+ C46A C2 CF C4         jp nz, .tf_no_redraw
  15+ C46D
  16+ C46D                  ; Copy the pre-converted SCR bitmap directly to screen memory
  17+ C46D 21 FD C4         ld hl, title_scr_data
  18+ C470 CD C1 81         call copy_scr_to_screen
  19+ C473
  20+ C473                  ; Overlay title text on top of the bitmap
  21+ C473                  ; "NEXUS TEST" centred at row 3
  22+ C473 3E 0B            ld a, 11
  23+ C475 32 C3 80         ld (pr_col), a
  24+ C478 3E 03            ld a, 3
  25+ C47A 32 C4 80         ld (pr_row), a
  26+ C47D 21 D2 C2         ld hl, str_title
  27+ C480 CD FE 80         call print_str
  28+ C483
  29+ C483                  ; Brighten title row attrs (overwrite the bitmap attrs for these cells)
  30+ C483 16 03            ld d, 3
  31+ C485 06 0B            ld b, 11
  32+ C487 1E 0A            ld e, 10
  33+ C489 3E 45            ld a, ATTR_TITLE
  34+ C48B CD 77 81         call set_row_attrs
  35+ C48E
  36+ C48E                  ; "ANDROID DETECTION UNIT" at row 6
  37+ C48E 3E 05            ld a, 5
  38+ C490 32 C3 80         ld (pr_col), a
  39+ C493 3E 06            ld a, 6
  40+ C495 32 C4 80         ld (pr_row), a
  41+ C498 21 DD C2         ld hl, str_subtitle
  42+ C49B CD FE 80         call print_str
  43+ C49E
  44+ C49E 16 06            ld d, 6
  45+ C4A0 06 05            ld b, 5
  46+ C4A2 1E 16            ld e, 22
  47+ C4A4 3E 44            ld a, INK_GREEN + (INK_BLACK*8) + BRIGHT
  48+ C4A6 CD 77 81         call set_row_attrs
  49+ C4A9
  50+ C4A9                  ; "PRESS ANY KEY" at row 10
  51+ C4A9 3E 09            ld a, 9
  52+ C4AB 32 C3 80         ld (pr_col), a
  53+ C4AE 3E 0A            ld a, 10
  54+ C4B0 32 C4 80         ld (pr_row), a
  55+ C4B3 21 F4 C2         ld hl, str_press
  56+ C4B6 CD FE 80         call print_str
  57+ C4B9
  58+ C4B9 16 0A            ld d, 10
  59+ C4BB 06 09            ld b, 9
  60+ C4BD 1E 0E            ld e, 14
  61+ C4BF 3E 47            ld a, INK_WHITE + (INK_BLACK*8) + BRIGHT
  62+ C4C1 CD 77 81         call set_row_attrs
  63+ C4C4
  64+ C4C4 3E 01            ld a, 1
  65+ C4C6 32 CC EA         ld (screen_drawn), a
  66+ C4C9 21 00 00         ld hl, 0
  67+ C4CC 22 99 EB         ld (attract_timer), hl
  68+ C4CF
  69+ C4CF              .tf_no_redraw:
  70+ C4CF CD 9D 84         call ay_tick_music
  71+ C4D2
  72+ C4D2                  ; Attract mode timer
  73+ C4D2 2A 99 EB         ld hl, (attract_timer)
  74+ C4D5 23               inc hl
  75+ C4D6 22 99 EB         ld (attract_timer), hl
  76+ C4D9                  ; Check if 500 frames (10 seconds)
  77+ C4D9 7C               ld a, h
  78+ C4DA FE 01            cp 1
  79+ C4DC 38 13            jr c, .tf_check_key
  80+ C4DE 7D               ld a, l
  81+ C4DF FE F4            cp 244             ; 1*256+244 = 500
  82+ C4E1 38 0E            jr c, .tf_check_key
  83+ C4E3                  ; Switch to high score display
  84+ C4E3 AF               xor a
  85+ C4E4 32 CC EA         ld (screen_drawn), a
  86+ C4E7 3E 06            ld a, ST_HISCORE
  87+ C4E9 32 CB EA         ld (game_state), a
  88+ C4EC AF               xor a
  89+ C4ED 32 DC E7         ld (hiscore_entry_mode), a
  90+ C4F0 C9               ret
  91+ C4F1
  92+ C4F1              .tf_check_key:
  93+ C4F1 CD 0D 83         call read_any_key
  94+ C4F4 B7               or a
  95+ C4F5 C8               ret z
  96+ C4F6                  ; Start the game
  97+ C4F6 CD 35 84         call ay_mute
  98+ C4F9 CD A2 EA         call start_new_game
  99+ C4FC C9               ret
 100+ C4FD
 101+ C4FD              ; The 6912-byte SCR data is included directly
 102+ C4FD              title_scr_data:
 103+ C4FD                  INCBIN "title.scr"
 104+ DFFD
# file closed: title.asm
  66  DFFD                  INCLUDE "game.asm"
# file opened: game.asm
   1+ DFFD              ; game.asm — All in-game states: level intro, interrogation, verdict, result, gameover
   2+ DFFD
   3+ DFFD              ; ===============================================================
   4+ DFFD              ; ST_LEVEL_INTRO — brief screen showing subject number and name
   5+ DFFD              ; ===============================================================
   6+ DFFD              level_intro_frame:
   7+ DFFD 3A CC EA         ld a, (screen_drawn)
   8+ E000 B7               or a
   9+ E001 C2 58 E0         jp nz, .li_wait
  10+ E004
  11+ E004 3E 45            ld a, INK_CYAN + (INK_BLACK*8) + BRIGHT
  12+ E006 CD 96 80         call clear_screen_attrs
  13+ E009
  14+ E009                  ; "SUBJECT X OF 5"
  15+ E009 3E 0A            ld a, 10
  16+ E00B 32 C3 80         ld (pr_col), a
  17+ E00E 3E 08            ld a, 8
  18+ E010 32 C4 80         ld (pr_row), a
  19+ E013 21 02 C3         ld hl, str_subject
  20+ E016 CD FE 80         call print_str
  21+ E019 3A C3 80         ld a, (pr_col)
  22+ E01C 3C               inc a
  23+ E01D 32 C3 80         ld (pr_col), a
  24+ E020 3A D0 EA         ld a, (level_num)
  25+ E023 CD 20 81         call print_num
  26+ E026 3A C3 80         ld a, (pr_col)
  27+ E029 3C               inc a
  28+ E02A 32 C3 80         ld (pr_col), a
  29+ E02D 21 0A C3         ld hl, str_of
  30+ E030 CD FE 80         call print_str
  31+ E033
  32+ E033                  ; Subject name on next line
  33+ E033 3A D0 EA         ld a, (level_num)
  34+ E036 CD 25 92         call get_subject_ptr
  35+ E039 11 08 00         ld de, SUBJ_NAME
  36+ E03C 19               add hl, de
  37+ E03D 7E               ld a, (hl)
  38+ E03E 23               inc hl
  39+ E03F 66               ld h, (hl)
  40+ E040 6F               ld l, a             ; HL = name string pointer
  41+ E041 3E 0B            ld a, 11
  42+ E043 32 C3 80         ld (pr_col), a
  43+ E046 3E 0B            ld a, 11
  44+ E048 32 C4 80         ld (pr_row), a
  45+ E04B CD FE 80         call print_str
  46+ E04E
  47+ E04E 3E 4B            ld a, INTRO_DELAY
  48+ E050 32 B2 E0         ld (intro_timer), a
  49+ E053 3E 01            ld a, 1
  50+ E055 32 CC EA         ld (screen_drawn), a
  51+ E058
  52+ E058              .li_wait:
  53+ E058 3A B2 E0         ld a, (intro_timer)
  54+ E05B B7               or a
  55+ E05C 28 05            jr z, .li_go
  56+ E05E 3D               dec a
  57+ E05F 32 B2 E0         ld (intro_timer), a
  58+ E062 C9               ret
  59+ E063              .li_go:
  60+ E063                  ; Init interrogation state
  61+ E063 AF               xor a
  62+ E064 32 CC EA         ld (screen_drawn), a
  63+ E067 32 D3 EA         ld (questions_asked), a
  64+ E06A 32 D6 EA         ld (query_count), a
  65+ E06D 32 D4 EA         ld (cursor_x), a
  66+ E070 32 D5 EA         ld (cursor_y), a
  67+ E073 32 CD EA         ld (key_held), a
  68+ E076 32 DC EA         ld (pupil_gauge), a
  69+ E079 32 DD EA         ld (flush_gauge), a
  70+ E07C 32 E5 EA         ld (pattern_flag), a
  71+ E07F 32 E6 EA         ld (blink_timer), a
  72+ E082 3E FF            ld a, ICON_NONE
  73+ E084 32 D7 EA         ld (query_icons), a
  74+ E087 32 D8 EA         ld (query_icons+1), a
  75+ E08A 32 D9 EA         ld (query_icons+2), a
  76+ E08D                  ; Clear prev gauge history
  77+ E08D AF               xor a
  78+ E08E 32 DE EA         ld (prev_pupil), a
  79+ E091 32 DF EA         ld (prev_pupil+1), a
  80+ E094 32 E0 EA         ld (prev_pupil+2), a
  81+ E097 32 E1 EA         ld (prev_flush), a
  82+ E09A 32 E2 EA         ld (prev_flush+1), a
  83+ E09D 32 E3 EA         ld (prev_flush+2), a
  84+ E0A0                  ; Set current_subj pointer
  85+ E0A0 3A D0 EA         ld a, (level_num)
  86+ E0A3 CD 25 92         call get_subject_ptr
  87+ E0A6 22 DA EA         ld (current_subj), hl
  88+ E0A9                  ; Init ambient music
  89+ E0A9 CD 9E 85         call ay_init_ambient
  90+ E0AC 3E 02            ld a, ST_INTERROGATION
  91+ E0AE 32 CB EA         ld (game_state), a
  92+ E0B1 C9               ret
  93+ E0B2
  94+ E0B2 00           intro_timer: db 0
  95+ E0B3
  96+ E0B3              ; ===============================================================
  97+ E0B3              ; ST_INTERROGATION — main gameplay
  98+ E0B3              ; ===============================================================
  99+ E0B3              interrogation_frame:
 100+ E0B3 3A CC EA         ld a, (screen_drawn)
 101+ E0B6 B7               or a
 102+ E0B7 C2 C2 E0         jp nz, .int_input
 103+ E0BA CD F3 E3         call draw_interrogation
 104+ E0BD 3E 01            ld a, 1
 105+ E0BF 32 CC EA         ld (screen_drawn), a
 106+ E0C2
 107+ E0C2              .int_input:
 108+ E0C2 CD 9D 84         call ay_tick_music
 109+ E0C5
 110+ E0C5                  ; Handle pupil blink countdown
 111+ E0C5 3A E6 EA         ld a, (blink_timer)
 112+ E0C8 B7               or a
 113+ E0C9 28 08            jr z, .int_no_blink
 114+ E0CB 3D               dec a
 115+ E0CC 32 E6 EA         ld (blink_timer), a
 116+ E0CF B7               or a
 117+ E0D0 CC B7 E3         call z, restore_eye_attr
 118+ E0D3              .int_no_blink:
 119+ E0D3
 120+ E0D3 CD 76 82         call read_game_key
 121+ E0D6 B7               or a
 122+ E0D7 C8               ret z
 123+ E0D8
 124+ E0D8                  ; Dispatch key
 125+ E0D8 FE 01            cp KEY_UP
 126+ E0DA CA 06 E1         jp z, .int_up
 127+ E0DD FE 02            cp KEY_DOWN
 128+ E0DF CA 23 E1         jp z, .int_down
 129+ E0E2 FE 03            cp KEY_LEFT
 130+ E0E4 CA 40 E1         jp z, .int_left
 131+ E0E7 FE 04            cp KEY_RIGHT
 132+ E0E9 CA 5D E1         jp z, .int_right
 133+ E0EC FE 05            cp KEY_SELECT
 134+ E0EE CA 7A E1         jp z, .int_select
 135+ E0F1 FE 06            cp KEY_ENTER
 136+ E0F3 CA D0 E1         jp z, .int_ask
 137+ E0F6 FE 09            cp KEY_CLEAR
 138+ E0F8 CA B3 E1         jp z, .int_clear
 139+ E0FB FE 07            cp KEY_HUMAN
 140+ E0FD CA 8F E2         jp z, .int_verdict_h
 141+ E100 FE 08            cp KEY_ANDROID
 142+ E102 CA 93 E2         jp z, .int_verdict_a
 143+ E105 C9               ret
 144+ E106
 145+ E106              ; ---- Cursor movement ----
 146+ E106              .int_up:
 147+ E106 3E 01            ld a, SFX_CLICK
 148+ E108 CD 02 86         call ay_play_sfx
 149+ E10B CD 79 E5         call unhighlight_cursor
 150+ E10E 3A D5 EA         ld a, (cursor_y)
 151+ E111 B7               or a
 152+ E112 28 07            jr z, .up_wrap
 153+ E114 3D               dec a
 154+ E115 32 D5 EA         ld (cursor_y), a
 155+ E118 C3 65 E5         jp highlight_cursor
 156+ E11B              .up_wrap:
 157+ E11B 3E 03            ld a, 3
 158+ E11D 32 D5 EA         ld (cursor_y), a
 159+ E120 C3 65 E5         jp highlight_cursor
 160+ E123
 161+ E123              .int_down:
 162+ E123 3E 01            ld a, SFX_CLICK
 163+ E125 CD 02 86         call ay_play_sfx
 164+ E128 CD 79 E5         call unhighlight_cursor
 165+ E12B 3A D5 EA         ld a, (cursor_y)
 166+ E12E FE 03            cp 3
 167+ E130 28 07            jr z, .dn_wrap
 168+ E132 3C               inc a
 169+ E133 32 D5 EA         ld (cursor_y), a
 170+ E136 C3 65 E5         jp highlight_cursor
 171+ E139              .dn_wrap:
 172+ E139 AF               xor a
 173+ E13A 32 D5 EA         ld (cursor_y), a
 174+ E13D C3 65 E5         jp highlight_cursor
 175+ E140
 176+ E140              .int_left:
 177+ E140 3E 01            ld a, SFX_CLICK
 178+ E142 CD 02 86         call ay_play_sfx
 179+ E145 CD 79 E5         call unhighlight_cursor
 180+ E148 3A D4 EA         ld a, (cursor_x)
 181+ E14B B7               or a
 182+ E14C 28 07            jr z, .lt_wrap
 183+ E14E 3D               dec a
 184+ E14F 32 D4 EA         ld (cursor_x), a
 185+ E152 C3 65 E5         jp highlight_cursor
 186+ E155              .lt_wrap:
 187+ E155 3E 03            ld a, 3
 188+ E157 32 D4 EA         ld (cursor_x), a
 189+ E15A C3 65 E5         jp highlight_cursor
 190+ E15D
 191+ E15D              .int_right:
 192+ E15D 3E 01            ld a, SFX_CLICK
 193+ E15F CD 02 86         call ay_play_sfx
 194+ E162 CD 79 E5         call unhighlight_cursor
 195+ E165 3A D4 EA         ld a, (cursor_x)
 196+ E168 FE 03            cp 3
 197+ E16A 28 07            jr z, .rt_wrap
 198+ E16C 3C               inc a
 199+ E16D 32 D4 EA         ld (cursor_x), a
 200+ E170 C3 65 E5         jp highlight_cursor
 201+ E173              .rt_wrap:
 202+ E173 AF               xor a
 203+ E174 32 D4 EA         ld (cursor_x), a
 204+ E177 C3 65 E5         jp highlight_cursor
 205+ E17A
 206+ E17A              ; ---- Icon selection ----
 207+ E17A              .int_select:
 208+ E17A                  ; Check if query full
 209+ E17A 3A D6 EA         ld a, (query_count)
 210+ E17D FE 03            cp MAX_QUERY_ICONS
 211+ E17F D0               ret nc
 212+ E180                  ; Compute icon ID = cursor_y * 4 + cursor_x
 213+ E180 3A D5 EA         ld a, (cursor_y)
 214+ E183 87               add a, a
 215+ E184 87               add a, a
 216+ E185 47               ld b, a
 217+ E186 3A D4 EA         ld a, (cursor_x)
 218+ E189 80               add a, b            ; A = icon id
 219+ E18A                  ; Check if already selected
 220+ E18A 21 D7 EA         ld hl, query_icons
 221+ E18D BE               cp (hl)
 222+ E18E C8               ret z
 223+ E18F 23               inc hl
 224+ E190 BE               cp (hl)
 225+ E191 C8               ret z
 226+ E192 23               inc hl
 227+ E193 BE               cp (hl)
 228+ E194 C8               ret z
 229+ E195                  ; Add to query
 230+ E195 47               ld b, a
 231+ E196 3A D6 EA         ld a, (query_count)
 232+ E199 5F               ld e, a
 233+ E19A 16 00            ld d, 0
 234+ E19C 21 D7 EA         ld hl, query_icons
 235+ E19F 19               add hl, de
 236+ E1A0 70               ld (hl), b
 237+ E1A1 3A D6 EA         ld a, (query_count)
 238+ E1A4 3C               inc a
 239+ E1A5 32 D6 EA         ld (query_count), a
 240+ E1A8                  ; SFX
 241+ E1A8 3E 02            ld a, SFX_CHIRP
 242+ E1AA CD 02 86         call ay_play_sfx
 243+ E1AD                  ; Mark icon as selected (attr)
 244+ E1AD CD 8D E5         call mark_selected_icon
 245+ E1B0                  ; Redraw query strip
 246+ E1B0 C3 A1 E5         jp draw_query_strip
 247+ E1B3
 248+ E1B3              ; ---- Clear query ----
 249+ E1B3              .int_clear:
 250+ E1B3 3E 01            ld a, SFX_CLICK
 251+ E1B5 CD 02 86         call ay_play_sfx
 252+ E1B8 AF               xor a
 253+ E1B9 32 D6 EA         ld (query_count), a
 254+ E1BC 3E FF            ld a, ICON_NONE
 255+ E1BE 32 D7 EA         ld (query_icons), a
 256+ E1C1 32 D8 EA         ld (query_icons+1), a
 257+ E1C4 32 D9 EA         ld (query_icons+2), a
 258+ E1C7                  ; Restore all icon grid attrs to normal
 259+ E1C7 CD 51 E5         call draw_icon_grid_attrs
 260+ E1CA CD 65 E5         call highlight_cursor
 261+ E1CD C3 A1 E5         jp draw_query_strip
 262+ E1D0
 263+ E1D0              ; ---- Ask question (core gameplay) ----
 264+ E1D0              .int_ask:
 265+ E1D0 3A D6 EA         ld a, (query_count)
 266+ E1D3 B7               or a
 267+ E1D4 C8               ret z               ; need at least 1 icon
 268+ E1D5
 269+ E1D5 3E 03            ld a, SFX_ASK
 270+ E1D7 CD 02 86         call ay_play_sfx
 271+ E1DA
 272+ E1DA                  ; 1. Classify the query
 273+ E1DA CD D3 8E         call classify_query
 274+ E1DD 32 54 E7         ld (ask_class), a
 275+ E1E0
 276+ E1E0                  ; 2. Compute emotional weight
 277+ E1E0 CD 25 8F         call compute_q_weight
 278+ E1E3
 279+ E1E3                  ; 3. Compute dual gauges
 280+ E1E3 3A 54 E7         ld a, (ask_class)
 281+ E1E6 2A DA EA         ld hl, (current_subj)
 282+ E1E9 CD 5D 8F         call compute_gauges
 283+ E1EC
 284+ E1EC                  ; 4. Select and build response text
 285+ E1EC 3A 54 E7         ld a, (ask_class)
 286+ E1EF 47               ld b, a
 287+ E1F0 CD B6 90         call select_and_build_response
 288+ E1F3                  ; HL = response string
 289+ E1F3
 290+ E1F3                  ; 5. Display scenario prompt and response text
 291+ E1F3 E5               push hl
 292+ E1F4 CD 1A E6         call clear_response_area
 293+ E1F7
 294+ E1F7                  ; Print scenario prompt based on first selected icon
 295+ E1F7 3A D7 EA         ld a, (query_icons)
 296+ E1FA FE FF            cp ICON_NONE
 297+ E1FC 28 34            jr z, .int_no_scenario
 298+ E1FE                  ; Look up scenario string: scenario_ptrs + icon * 2
 299+ E1FE 6F               ld l, a
 300+ E1FF 26 00            ld h, 0
 301+ E201 29               add hl, hl
 302+ E202 11 97 C0         ld de, scenario_ptrs
 303+ E205 19               add hl, de
 304+ E206 7E               ld a, (hl)
 305+ E207 23               inc hl
 306+ E208 66               ld h, (hl)
 307+ E209 6F               ld l, a              ; HL = scenario string pointer
 308+ E20A 3E 09            ld a, RESPONSE_COL
 309+ E20C 32 C3 80         ld (pr_col), a
 310+ E20F 3E 03            ld a, RESPONSE_ROW
 311+ E211 32 C4 80         ld (pr_row), a
 312+ E214 3E 17            ld a, RESPONSE_W
 313+ E216 32 CB 81         ld (box_width), a
 314+ E219 CD CC 81         call print_str_box
 315+ E21C                  ; Set scenario row attrs (white on black, 2 rows for wrapped prompts)
 316+ E21C 16 03            ld d, RESPONSE_ROW
 317+ E21E 06 09            ld b, RESPONSE_COL
 318+ E220 1E 17            ld e, RESPONSE_W
 319+ E222 3E 47            ld a, ATTR_QUERY
 320+ E224 CD 77 81         call set_row_attrs
 321+ E227 16 04            ld d, RESPONSE_ROW + 1
 322+ E229 06 09            ld b, RESPONSE_COL
 323+ E22B 1E 17            ld e, RESPONSE_W
 324+ E22D 3E 47            ld a, ATTR_QUERY
 325+ E22F CD 77 81         call set_row_attrs
 326+ E232              .int_no_scenario:
 327+ E232
 328+ E232 E1               pop hl
 329+ E233 3E 09            ld a, RESPONSE_COL
 330+ E235 32 C3 80         ld (pr_col), a
 331+ E238 3E 05            ld a, RESPONSE_ROW + 2
 332+ E23A 32 C4 80         ld (pr_row), a
 333+ E23D 3E 17            ld a, RESPONSE_W
 334+ E23F 32 CB 81         ld (box_width), a
 335+ E242 CD CC 81         call print_str_box
 336+ E245
 337+ E245                  ; 6. Set response area attrs (rows below scenario prompt)
 338+ E245 16 05            ld d, RESPONSE_ROW + 2
 339+ E247              .int_rattr:
 340+ E247 7A               ld a, d
 341+ E248 FE 09            cp RESPONSE_ROW + RESPONSE_H
 342+ E24A 30 0E            jr nc, .int_rattr_done
 343+ E24C D5               push de
 344+ E24D 06 09            ld b, RESPONSE_COL
 345+ E24F 1E 17            ld e, RESPONSE_W
 346+ E251 3E 45            ld a, ATTR_RESPONSE
 347+ E253 CD 77 81         call set_row_attrs
 348+ E256 D1               pop de
 349+ E257 14               inc d
 350+ E258 18 ED            jr .int_rattr
 351+ E25A              .int_rattr_done:
 352+ E25A
 353+ E25A                  ; 7. Draw Voight-Kampff gauges and readings
 354+ E25A CD A6 E2         call draw_pupil_gauge
 355+ E25D CD BE E2         call draw_flush_gauge
 356+ E260 CD 09 E3         call draw_pattern_label
 357+ E263 CD 3D E3         call draw_qweight_label
 358+ E266
 359+ E266                  ; 8. Trigger pupil blink if gauge is in red zone
 360+ E266 3A DC EA         ld a, (pupil_gauge)
 361+ E269 FE 0C            cp 12
 362+ E26B 38 03            jr c, .int_no_blink_trigger
 363+ E26D CD 7A E3         call trigger_eye_blink
 364+ E270              .int_no_blink_trigger:
 365+ E270
 366+ E270                  ; 9. Increment questions asked
 367+ E270 21 D3 EA         ld hl, questions_asked
 368+ E273 34               inc (hl)
 369+ E274
 370+ E274                  ; 10. Clear query for next round
 371+ E274 AF               xor a
 372+ E275 32 D6 EA         ld (query_count), a
 373+ E278 3E FF            ld a, ICON_NONE
 374+ E27A 32 D7 EA         ld (query_icons), a
 375+ E27D 32 D8 EA         ld (query_icons+1), a
 376+ E280 32 D9 EA         ld (query_icons+2), a
 377+ E283 CD 51 E5         call draw_icon_grid_attrs
 378+ E286 CD 65 E5         call highlight_cursor
 379+ E289 CD A1 E5         call draw_query_strip
 380+ E28C C3 BA E4         jp draw_status_bar
 381+ E28F
 382+ E28F              ; ---- Verdict ----
 383+ E28F              .int_verdict_h:
 384+ E28F AF               xor a               ; TYPE_HUMAN
 385+ E290 C3 95 E2         jp .do_verdict
 386+ E293              .int_verdict_a:
 387+ E293 3E 01            ld a, TYPE_ANDROID
 388+ E295              .do_verdict:
 389+ E295 32 A5 E2         ld (player_verdict), a
 390+ E298 CD 35 84         call ay_mute
 391+ E29B AF               xor a
 392+ E29C 32 CC EA         ld (screen_drawn), a
 393+ E29F 3E 03            ld a, ST_VERDICT
 394+ E2A1 32 CB EA         ld (game_state), a
 395+ E2A4 C9               ret
 396+ E2A5
 397+ E2A5 00           player_verdict: db 0
 398+ E2A6
 399+ E2A6              ; ===============================================================
 400+ E2A6              ; Voight-Kampff gauge display routines
 401+ E2A6              ; ===============================================================
 402+ E2A6
 403+ E2A6              ; Draw PUPIL gauge bar at row PUPIL_ROW
 404+ E2A6              draw_pupil_gauge:
 405+ E2A6                  ; Label
 406+ E2A6 3E 09            ld a, GAUGE_LABEL_COL
 407+ E2A8 32 C3 80         ld (pr_col), a
 408+ E2AB 3E 0A            ld a, PUPIL_ROW
 409+ E2AD 32 C4 80         ld (pr_row), a
 410+ E2B0 21 7E C2         ld hl, str_pupil
 411+ E2B3 CD FE 80         call print_str
 412+ E2B6                  ; Bar
 413+ E2B6 3A DC EA         ld a, (pupil_gauge)
 414+ E2B9 16 0A            ld d, PUPIL_ROW
 415+ E2BB C3 D6 E2         jp draw_gauge_bar
 416+ E2BE
 417+ E2BE              ; Draw FLUSH gauge bar at row FLUSH_ROW
 418+ E2BE              draw_flush_gauge:
 419+ E2BE                  ; Label
 420+ E2BE 3E 09            ld a, GAUGE_LABEL_COL
 421+ E2C0 32 C3 80         ld (pr_col), a
 422+ E2C3 3E 0B            ld a, FLUSH_ROW
 423+ E2C5 32 C4 80         ld (pr_row), a
 424+ E2C8 21 84 C2         ld hl, str_flush
 425+ E2CB CD FE 80         call print_str
 426+ E2CE                  ; Bar
 427+ E2CE 3A DD EA         ld a, (flush_gauge)
 428+ E2D1 16 0B            ld d, FLUSH_ROW
 429+ E2D3 C3 D6 E2         jp draw_gauge_bar
 430+ E2D6
 431+ E2D6              ; Draw a gauge bar: A = value (0-max), D = row
 432+ E2D6              ; Filled portion uses colored attrs, empty portion uses dark
 433+ E2D6              draw_gauge_bar:
 434+ E2D6                  ; Clamp value to bar width
 435+ E2D6 FE 12            cp GAUGE_BAR_W + 1
 436+ E2D8 38 02            jr c, .dgb_clamped
 437+ E2DA 3E 11            ld a, GAUGE_BAR_W
 438+ E2DC              .dgb_clamped:
 439+ E2DC 4F               ld c, a              ; C = filled width (0-GAUGE_BAR_W)
 440+ E2DD                  ; Draw filled portion
 441+ E2DD 79               ld a, c
 442+ E2DE B7               or a
 443+ E2DF 28 19            jr z, .dgb_empty_only
 444+ E2E1 06 0F            ld b, GAUGE_BAR_COL
 445+ E2E3 59               ld e, c
 446+ E2E4                  ; Choose color: green 0-5, yellow 6-11, red 12+
 447+ E2E4 79               ld a, c
 448+ E2E5 FE 0C            cp 12
 449+ E2E7 30 0C            jr nc, .dgb_red
 450+ E2E9 FE 06            cp 6
 451+ E2EB 30 04            jr nc, .dgb_yellow
 452+ E2ED 3E 64            ld a, ATTR_GAUGE_LO
 453+ E2EF 18 06            jr .dgb_fill
 454+ E2F1              .dgb_yellow:
 455+ E2F1 3E 76            ld a, ATTR_GAUGE_MID
 456+ E2F3 18 02            jr .dgb_fill
 457+ E2F5              .dgb_red:
 458+ E2F5 3E 52            ld a, ATTR_GAUGE_HI
 459+ E2F7              .dgb_fill:
 460+ E2F7 CD 77 81         call set_row_attrs
 461+ E2FA
 462+ E2FA              .dgb_empty_only:
 463+ E2FA                  ; Draw empty portion
 464+ E2FA 3E 11            ld a, GAUGE_BAR_W
 465+ E2FC 91               sub c
 466+ E2FD B7               or a
 467+ E2FE C8               ret z
 468+ E2FF 5F               ld e, a
 469+ E300 3E 0F            ld a, GAUGE_BAR_COL
 470+ E302 81               add a, c
 471+ E303 47               ld b, a
 472+ E304 3E 00            ld a, ATTR_GAUGE_BG
 473+ E306 C3 77 81         jp set_row_attrs
 474+ E309
 475+ E309              ; Draw PATTERN label
 476+ E309              draw_pattern_label:
 477+ E309 3E 09            ld a, GAUGE_LABEL_COL
 478+ E30B 32 C3 80         ld (pr_col), a
 479+ E30E 3E 0C            ld a, PATTERN_ROW
 480+ E310 32 C4 80         ld (pr_row), a
 481+ E313 21 8A C2         ld hl, str_pattern
 482+ E316 CD FE 80         call print_str
 483+ E319 3A C3 80         ld a, (pr_col)
 484+ E31C 3C               inc a
 485+ E31D 32 C3 80         ld (pr_col), a
 486+ E320                  ; Get pattern label pointer
 487+ E320 3A E5 EA         ld a, (pattern_flag)
 488+ E323 87               add a, a
 489+ E324 5F               ld e, a
 490+ E325 16 00            ld d, 0
 491+ E327 21 C6 C2         ld hl, pattern_labels
 492+ E32A 19               add hl, de
 493+ E32B 7E               ld a, (hl)
 494+ E32C 23               inc hl
 495+ E32D 66               ld h, (hl)
 496+ E32E 6F               ld l, a
 497+ E32F CD FE 80         call print_str
 498+ E332                  ; Set row attrs
 499+ E332 16 0C            ld d, PATTERN_ROW
 500+ E334 06 09            ld b, GAUGE_LABEL_COL
 501+ E336 1E 17            ld e, RESPONSE_W
 502+ E338 3E 45            ld a, ATTR_RESPONSE
 503+ E33A C3 77 81         jp set_row_attrs
 504+ E33D
 505+ E33D              ; Draw Q-WEIGHT label
 506+ E33D              draw_qweight_label:
 507+ E33D 3E 09            ld a, GAUGE_LABEL_COL
 508+ E33F 32 C3 80         ld (pr_col), a
 509+ E342 3E 0D            ld a, QWEIGHT_ROW
 510+ E344 32 C4 80         ld (pr_row), a
 511+ E347 21 93 C2         ld hl, str_qweight
 512+ E34A CD FE 80         call print_str
 513+ E34D 3A C3 80         ld a, (pr_col)
 514+ E350 3C               inc a
 515+ E351 32 C3 80         ld (pr_col), a
 516+ E354                  ; Determine level: <33=LOW, <66=MED, else HIGH
 517+ E354 3A E4 EA         ld a, (q_weight)
 518+ E357 FE 42            cp 66
 519+ E359 30 0E            jr nc, .dqw_high
 520+ E35B FE 21            cp 33
 521+ E35D 30 05            jr nc, .dqw_med
 522+ E35F                  ; LOW
 523+ E35F 21 B7 C2         ld hl, str_qw_low
 524+ E362 18 08            jr .dqw_print
 525+ E364              .dqw_med:
 526+ E364 21 BC C2         ld hl, str_qw_med
 527+ E367 18 03            jr .dqw_print
 528+ E369              .dqw_high:
 529+ E369 21 C1 C2         ld hl, str_qw_high
 530+ E36C              .dqw_print:
 531+ E36C CD FE 80         call print_str
 532+ E36F                  ; Set row attrs
 533+ E36F 16 0D            ld d, QWEIGHT_ROW
 534+ E371 06 09            ld b, GAUGE_LABEL_COL
 535+ E373 1E 17            ld e, RESPONSE_W
 536+ E375 3E 45            ld a, ATTR_RESPONSE
 537+ E377 C3 77 81         jp set_row_attrs
 538+ E37A
 539+ E37A              ; ===============================================================
 540+ E37A              ; Eye blink effect — briefly set eye attrs to red
 541+ E37A              ; ===============================================================
 542+ E37A              trigger_eye_blink:
 543+ E37A 3E 0A            ld a, 10
 544+ E37C 32 E6 EA         ld (blink_timer), a
 545+ E37F                  ; Determine eye positions from portrait seed
 546+ E37F 2A DA EA         ld hl, (current_subj)
 547+ E382 11 07 00         ld de, SUBJ_PORTRAIT + 1
 548+ E385 19               add hl, de
 549+ E386 7E               ld a, (hl)          ; port_seed_hi
 550+ E387 E6 01            and 1
 551+ E389 28 16            jr z, .teb_normal
 552+ E38B                  ; Wide eyes: cols 1 and 6
 553+ E38B 3E 52            ld a, ATTR_PUPIL_BLINK
 554+ E38D 16 05            ld d, PORTRAIT_ROW + 3
 555+ E38F 06 01            ld b, PORTRAIT_COL + 1
 556+ E391 1E 01            ld e, 1
 557+ E393 CD 77 81         call set_row_attrs
 558+ E396 3E 52            ld a, ATTR_PUPIL_BLINK
 559+ E398 16 05            ld d, PORTRAIT_ROW + 3
 560+ E39A 06 06            ld b, PORTRAIT_COL + 6
 561+ E39C 1E 01            ld e, 1
 562+ E39E C3 77 81         jp set_row_attrs
 563+ E3A1              .teb_normal:
 564+ E3A1                  ; Normal eyes: cols 2 and 5
 565+ E3A1 3E 52            ld a, ATTR_PUPIL_BLINK
 566+ E3A3 16 05            ld d, PORTRAIT_ROW + 3
 567+ E3A5 06 02            ld b, PORTRAIT_COL + 2
 568+ E3A7 1E 01            ld e, 1
 569+ E3A9 CD 77 81         call set_row_attrs
 570+ E3AC 3E 52            ld a, ATTR_PUPIL_BLINK
 571+ E3AE 16 05            ld d, PORTRAIT_ROW + 3
 572+ E3B0 06 05            ld b, PORTRAIT_COL + 5
 573+ E3B2 1E 01            ld e, 1
 574+ E3B4 C3 77 81         jp set_row_attrs
 575+ E3B7
 576+ E3B7              ; Restore eye attrs to normal black
 577+ E3B7              restore_eye_attr:
 578+ E3B7 2A DA EA         ld hl, (current_subj)
 579+ E3BA 11 07 00         ld de, SUBJ_PORTRAIT + 1
 580+ E3BD 19               add hl, de
 581+ E3BE 7E               ld a, (hl)
 582+ E3BF E6 01            and 1
 583+ E3C1 28 18            jr z, .rea_normal
 584+ E3C3 3A 95 8D         ld a, (eye_attr)
 585+ E3C6 16 05            ld d, PORTRAIT_ROW + 3
 586+ E3C8 06 01            ld b, PORTRAIT_COL + 1
 587+ E3CA 1E 01            ld e, 1
 588+ E3CC CD 77 81         call set_row_attrs
 589+ E3CF 3A 95 8D         ld a, (eye_attr)
 590+ E3D2 16 05            ld d, PORTRAIT_ROW + 3
 591+ E3D4 06 06            ld b, PORTRAIT_COL + 6
 592+ E3D6 1E 01            ld e, 1
 593+ E3D8 C3 77 81         jp set_row_attrs
 594+ E3DB              .rea_normal:
 595+ E3DB 3A 95 8D         ld a, (eye_attr)
 596+ E3DE 16 05            ld d, PORTRAIT_ROW + 3
 597+ E3E0 06 02            ld b, PORTRAIT_COL + 2
 598+ E3E2 1E 01            ld e, 1
 599+ E3E4 CD 77 81         call set_row_attrs
 600+ E3E7 3A 95 8D         ld a, (eye_attr)
 601+ E3EA 16 05            ld d, PORTRAIT_ROW + 3
 602+ E3EC 06 05            ld b, PORTRAIT_COL + 5
 603+ E3EE 1E 01            ld e, 1
 604+ E3F0 C3 77 81         jp set_row_attrs
 605+ E3F3
 606+ E3F3              ; ===============================================================
 607+ E3F3              ; Interrogation screen drawing
 608+ E3F3              ; ===============================================================
 609+ E3F3              draw_interrogation:
 610+ E3F3 3E 04            ld a, INK_GREEN + (INK_BLACK*8)
 611+ E3F5 CD 96 80         call clear_screen_attrs
 612+ E3F8
 613+ E3F8 CD BA E4         call draw_status_bar
 614+ E3FB
 615+ E3FB                  ; Divider row 1
 616+ E3FB 16 01            ld d, 1
 617+ E3FD 06 00            ld b, 0
 618+ E3FF 1E 20            ld e, 32
 619+ E401 3E 24            ld a, ATTR_DIVIDER
 620+ E403 CD 77 81         call set_row_attrs
 621+ E406
 622+ E406                  ; Divider row 14
 623+ E406 16 0E            ld d, 14
 624+ E408 06 00            ld b, 0
 625+ E40A 1E 20            ld e, 32
 626+ E40C 3E 24            ld a, ATTR_DIVIDER
 627+ E40E CD 77 81         call set_row_attrs
 628+ E411
 629+ E411                  ; Divider row 20
 630+ E411 16 14            ld d, 20
 631+ E413 06 00            ld b, 0
 632+ E415 1E 20            ld e, 32
 633+ E417 3E 24            ld a, ATTR_DIVIDER
 634+ E419 CD 77 81         call set_row_attrs
 635+ E41C
 636+ E41C                  ; Draw portrait
 637+ E41C 2A DA EA         ld hl, (current_subj)
 638+ E41F CD 98 8D         call draw_portrait
 639+ E422
 640+ E422                  ; Vertical separator: col 8, rows 2-13 — use divider attr
 641+ E422 16 02            ld d, 2
 642+ E424              .di_vsep:
 643+ E424 7A               ld a, d
 644+ E425 FE 0E            cp 14
 645+ E427 30 0E            jr nc, .di_vsep_done
 646+ E429 D5               push de
 647+ E42A 06 08            ld b, 8
 648+ E42C 1E 01            ld e, 1
 649+ E42E 3E 24            ld a, ATTR_DIVIDER
 650+ E430 CD 77 81         call set_row_attrs
 651+ E433 D1               pop de
 652+ E434 14               inc d
 653+ E435 18 ED            jr .di_vsep
 654+ E437              .di_vsep_done:
 655+ E437
 656+ E437                  ; Response area attrs (initially dark)
 657+ E437 16 03            ld d, RESPONSE_ROW
 658+ E439              .di_resp:
 659+ E439 7A               ld a, d
 660+ E43A FE 09            cp RESPONSE_ROW + RESPONSE_H
 661+ E43C 30 0E            jr nc, .di_resp_done
 662+ E43E D5               push de
 663+ E43F 06 09            ld b, RESPONSE_COL
 664+ E441 1E 17            ld e, RESPONSE_W
 665+ E443 3E 05            ld a, INK_CYAN + (INK_BLACK*8)
 666+ E445 CD 77 81         call set_row_attrs
 667+ E448 D1               pop de
 668+ E449 14               inc d
 669+ E44A 18 ED            jr .di_resp
 670+ E44C              .di_resp_done:
 671+ E44C
 672+ E44C                  ; Gauge area attrs (initially dark, rows 10-13)
 673+ E44C 16 0A            ld d, PUPIL_ROW
 674+ E44E              .di_gauge:
 675+ E44E 7A               ld a, d
 676+ E44F FE 0E            cp QWEIGHT_ROW + 1
 677+ E451 30 0E            jr nc, .di_gauge_done
 678+ E453 D5               push de
 679+ E454 06 09            ld b, GAUGE_LABEL_COL
 680+ E456 1E 17            ld e, RESPONSE_W
 681+ E458 3E 05            ld a, INK_CYAN + (INK_BLACK*8)
 682+ E45A CD 77 81         call set_row_attrs
 683+ E45D D1               pop de
 684+ E45E 14               inc d
 685+ E45F 18 ED            jr .di_gauge
 686+ E461              .di_gauge_done:
 687+ E461
 688+ E461                  ; Query strip
 689+ E461 CD A1 E5         call draw_query_strip
 690+ E464
 691+ E464                  ; Icon grid labels
 692+ E464 CD 23 E5         call draw_icon_labels
 693+ E467 CD 51 E5         call draw_icon_grid_attrs
 694+ E46A CD 65 E5         call highlight_cursor
 695+ E46D
 696+ E46D                  ; Controls text row 21
 697+ E46D 3E 01            ld a, 1
 698+ E46F 32 C3 80         ld (pr_col), a
 699+ E472 3E 15            ld a, 21
 700+ E474 32 C4 80         ld (pr_row), a
 701+ E477 21 1F C3         ld hl, str_enter_ask
 702+ E47A CD FE 80         call print_str
 703+ E47D 3E 0C            ld a, 12
 704+ E47F 32 C3 80         ld (pr_col), a
 705+ E482 21 29 C3         ld hl, str_h_human
 706+ E485 CD FE 80         call print_str
 707+ E488 3E 15            ld a, 21
 708+ E48A 32 C3 80         ld (pr_col), a
 709+ E48D 21 31 C3         ld hl, str_r_android
 710+ E490 CD FE 80         call print_str
 711+ E493
 712+ E493                  ; Row 21 attrs
 713+ E493 16 15            ld d, 21
 714+ E495 06 00            ld b, 0
 715+ E497 1E 20            ld e, 32
 716+ E499 3E 07            ld a, ATTR_CONTROLS
 717+ E49B CD 77 81         call set_row_attrs
 718+ E49E
 719+ E49E                  ; Controls text row 22
 720+ E49E 3E 01            ld a, 1
 721+ E4A0 32 C3 80         ld (pr_col), a
 722+ E4A3 3E 16            ld a, 22
 723+ E4A5 32 C4 80         ld (pr_row), a
 724+ E4A8 21 3B C3         ld hl, str_controls
 725+ E4AB CD FE 80         call print_str
 726+ E4AE
 727+ E4AE 16 16            ld d, 22
 728+ E4B0 06 00            ld b, 0
 729+ E4B2 1E 20            ld e, 32
 730+ E4B4 3E 07            ld a, ATTR_CONTROLS
 731+ E4B6 CD 77 81         call set_row_attrs
 732+ E4B9
 733+ E4B9 C9               ret
 734+ E4BA
 735+ E4BA              ; --- Status bar (row 0) ---
 736+ E4BA              draw_status_bar:
 737+ E4BA                  ; Clear row 0 text
 738+ E4BA 16 00            ld d, 0
 739+ E4BC 06 00            ld b, 0
 740+ E4BE 1E 20            ld e, 32
 741+ E4C0 0E 01            ld c, 1
 742+ E4C2 CD 95 81         call clear_text_rect
 743+ E4C5                  ; LVL N
 744+ E4C5 3E 00            ld a, 0
 745+ E4C7 32 C3 80         ld (pr_col), a
 746+ E4CA 3E 00            ld a, 0
 747+ E4CC 32 C4 80         ld (pr_row), a
 748+ E4CF 21 0F C3         ld hl, str_lvl
 749+ E4D2 CD FE 80         call print_str
 750+ E4D5 3A C3 80         ld a, (pr_col)
 751+ E4D8 3C               inc a
 752+ E4D9 32 C3 80         ld (pr_col), a
 753+ E4DC 3A D0 EA         ld a, (level_num)
 754+ E4DF CD 20 81         call print_num
 755+ E4E2                  ; SCORE NNN
 756+ E4E2 3E 08            ld a, 8
 757+ E4E4 32 C3 80         ld (pr_col), a
 758+ E4E7 21 13 C3         ld hl, str_score
 759+ E4EA CD FE 80         call print_str
 760+ E4ED 3A C3 80         ld a, (pr_col)
 761+ E4F0 3C               inc a
 762+ E4F1 32 C3 80         ld (pr_col), a
 763+ E4F4 2A D1 EA         ld hl, (total_score)
 764+ E4F7 CD 45 81         call print_num16
 765+ E4FA                  ; ASKED N
 766+ E4FA 3E 14            ld a, 20
 767+ E4FC 32 C3 80         ld (pr_col), a
 768+ E4FF 3E 00            ld a, 0
 769+ E501 32 C4 80         ld (pr_row), a
 770+ E504 21 16 C3         ld hl, str_asked
 771+ E507 CD FE 80         call print_str
 772+ E50A 3A C3 80         ld a, (pr_col)
 773+ E50D 3C               inc a
 774+ E50E 32 C3 80         ld (pr_col), a
 775+ E511 3A D3 EA         ld a, (questions_asked)
 776+ E514 CD 20 81         call print_num
 777+ E517                  ; Attr
 778+ E517 16 00            ld d, 0
 779+ E519 06 00            ld b, 0
 780+ E51B 1E 20            ld e, 32
 781+ E51D 3E 46            ld a, ATTR_STATUS
 782+ E51F CD 77 81         call set_row_attrs
 783+ E522 C9               ret
 784+ E523
 785+ E523              ; --- Icon labels (text) ---
 786+ E523              draw_icon_labels:
 787+ E523 0E 00            ld c, 0             ; icon index 0-15
 788+ E525              .dil_loop:
 789+ E525 79               ld a, c
 790+ E526 FE 10            cp 16
 791+ E528 D0               ret nc
 792+ E529 C5               push bc
 793+ E52A                  ; Row = 16 + (index / 4)
 794+ E52A 79               ld a, c
 795+ E52B CB 3F            srl a
 796+ E52D CB 3F            srl a
 797+ E52F C6 10            add a, GRID_TOP_ROW
 798+ E531 32 C4 80         ld (pr_row), a
 799+ E534                  ; Col = (index & 3) * 8
 800+ E534 79               ld a, c
 801+ E535 E6 03            and 3
 802+ E537 87               add a, a
 803+ E538 87               add a, a
 804+ E539 87               add a, a
 805+ E53A 32 C3 80         ld (pr_col), a
 806+ E53D                  ; Get icon label pointer
 807+ E53D 79               ld a, c
 808+ E53E 87               add a, a
 809+ E53F 5F               ld e, a
 810+ E540 16 00            ld d, 0
 811+ E542 21 3E 92         ld hl, icon_labels
 812+ E545 19               add hl, de
 813+ E546 7E               ld a, (hl)
 814+ E547 23               inc hl
 815+ E548 66               ld h, (hl)
 816+ E549 6F               ld l, a
 817+ E54A CD FE 80         call print_str
 818+ E54D C1               pop bc
 819+ E54E 0C               inc c
 820+ E54F 18 D4            jr .dil_loop
 821+ E551
 822+ E551              ; --- Icon grid attrs (normal green) ---
 823+ E551              draw_icon_grid_attrs:
 824+ E551 16 10            ld d, GRID_TOP_ROW
 825+ E553              .diga_loop:
 826+ E553 7A               ld a, d
 827+ E554 FE 14            cp GRID_TOP_ROW + 4
 828+ E556 D0               ret nc
 829+ E557 D5               push de
 830+ E558 06 00            ld b, 0
 831+ E55A 1E 20            ld e, 32
 832+ E55C 3E 44            ld a, ATTR_NORMAL
 833+ E55E CD 77 81         call set_row_attrs
 834+ E561 D1               pop de
 835+ E562 14               inc d
 836+ E563 18 EE            jr .diga_loop
 837+ E565
 838+ E565              ; --- Cursor highlight/unhighlight ---
 839+ E565              highlight_cursor:
 840+ E565 3A D5 EA         ld a, (cursor_y)
 841+ E568 C6 10            add a, GRID_TOP_ROW
 842+ E56A 57               ld d, a
 843+ E56B 3A D4 EA         ld a, (cursor_x)
 844+ E56E 87               add a, a
 845+ E56F 87               add a, a
 846+ E570 87               add a, a
 847+ E571 47               ld b, a
 848+ E572 1E 08            ld e, 8
 849+ E574 3E 60            ld a, ATTR_HIGHLIGHT
 850+ E576 C3 77 81         jp set_row_attrs
 851+ E579
 852+ E579              unhighlight_cursor:
 853+ E579 3A D5 EA         ld a, (cursor_y)
 854+ E57C C6 10            add a, GRID_TOP_ROW
 855+ E57E 57               ld d, a
 856+ E57F 3A D4 EA         ld a, (cursor_x)
 857+ E582 87               add a, a
 858+ E583 87               add a, a
 859+ E584 87               add a, a
 860+ E585 47               ld b, a
 861+ E586 1E 08            ld e, 8
 862+ E588 3E 44            ld a, ATTR_NORMAL
 863+ E58A C3 77 81         jp set_row_attrs
 864+ E58D
 865+ E58D              ; --- Mark a selected icon (yellow attr) ---
 866+ E58D              mark_selected_icon:
 867+ E58D 3A D5 EA         ld a, (cursor_y)
 868+ E590 C6 10            add a, GRID_TOP_ROW
 869+ E592 57               ld d, a
 870+ E593 3A D4 EA         ld a, (cursor_x)
 871+ E596 87               add a, a
 872+ E597 87               add a, a
 873+ E598 87               add a, a
 874+ E599 47               ld b, a
 875+ E59A 1E 08            ld e, 8
 876+ E59C 3E 46            ld a, ATTR_SELECTED
 877+ E59E C3 77 81         jp set_row_attrs
 878+ E5A1
 879+ E5A1              ; --- Query strip (row 15) ---
 880+ E5A1              draw_query_strip:
 881+ E5A1                  ; Clear row 15
 882+ E5A1 16 0F            ld d, QUERY_ROW
 883+ E5A3 06 00            ld b, 0
 884+ E5A5 1E 20            ld e, 32
 885+ E5A7 0E 01            ld c, 1
 886+ E5A9 CD 95 81         call clear_text_rect
 887+ E5AC                  ; "QUERY:"
 888+ E5AC 3E 00            ld a, 0
 889+ E5AE 32 C3 80         ld (pr_col), a
 890+ E5B1 3E 0F            ld a, QUERY_ROW
 891+ E5B3 32 C4 80         ld (pr_row), a
 892+ E5B6 21 18 C3         ld hl, str_query
 893+ E5B9 CD FE 80         call print_str
 894+ E5BC 3A C3 80         ld a, (pr_col)
 895+ E5BF 3C               inc a
 896+ E5C0 32 C3 80         ld (pr_col), a
 897+ E5C3                  ; Print selected icon names
 898+ E5C3 3A D6 EA         ld a, (query_count)
 899+ E5C6 B7               or a
 900+ E5C7 28 45            jr z, .dqs_empty
 901+ E5C9 06 00            ld b, 0             ; icon counter
 902+ E5CB              .dqs_icon:
 903+ E5CB C5               push bc
 904+ E5CC 78               ld a, b
 905+ E5CD 5F               ld e, a
 906+ E5CE 16 00            ld d, 0
 907+ E5D0 21 D7 EA         ld hl, query_icons
 908+ E5D3 19               add hl, de
 909+ E5D4 7E               ld a, (hl)
 910+ E5D5 FE FF            cp ICON_NONE
 911+ E5D7 28 2E            jr z, .dqs_icon_skip
 912+ E5D9                  ; Print "+" separator if not first
 913+ E5D9 78               ld a, b
 914+ E5DA B7               or a
 915+ E5DB 28 0D            jr z, .dqs_no_plus
 916+ E5DD C5               push bc
 917+ E5DE 3E 0F            ld a, QUERY_ROW
 918+ E5E0 32 C4 80         ld (pr_row), a
 919+ E5E3 21 AC C3         ld hl, str_plus
 920+ E5E6 CD FE 80         call print_str
 921+ E5E9 C1               pop bc
 922+ E5EA              .dqs_no_plus:
 923+ E5EA                  ; Get icon name
 924+ E5EA 78               ld a, b
 925+ E5EB 5F               ld e, a
 926+ E5EC 16 00            ld d, 0
 927+ E5EE 21 D7 EA         ld hl, query_icons
 928+ E5F1 19               add hl, de
 929+ E5F2 7E               ld a, (hl)
 930+ E5F3 87               add a, a
 931+ E5F4 5F               ld e, a
 932+ E5F5 16 00            ld d, 0
 933+ E5F7 21 3E 92         ld hl, icon_labels
 934+ E5FA 19               add hl, de
 935+ E5FB 7E               ld a, (hl)
 936+ E5FC 23               inc hl
 937+ E5FD 66               ld h, (hl)
 938+ E5FE 6F               ld l, a
 939+ E5FF 3E 0F            ld a, QUERY_ROW
 940+ E601 32 C4 80         ld (pr_row), a
 941+ E604 CD FE 80         call print_str
 942+ E607              .dqs_icon_skip:
 943+ E607 C1               pop bc
 944+ E608 04               inc b
 945+ E609 78               ld a, b
 946+ E60A FE 03            cp MAX_QUERY_ICONS
 947+ E60C 38 BD            jr c, .dqs_icon
 948+ E60E              .dqs_empty:
 949+ E60E                  ; Attr
 950+ E60E 16 0F            ld d, QUERY_ROW
 951+ E610 06 00            ld b, 0
 952+ E612 1E 20            ld e, 32
 953+ E614 3E 47            ld a, ATTR_QUERY
 954+ E616 CD 77 81         call set_row_attrs
 955+ E619 C9               ret
 956+ E61A
 957+ E61A              ; --- Clear response text area ---
 958+ E61A              clear_response_area:
 959+ E61A 16 03            ld d, RESPONSE_ROW
 960+ E61C 06 09            ld b, RESPONSE_COL
 961+ E61E 1E 17            ld e, RESPONSE_W
 962+ E620 0E 06            ld c, RESPONSE_H
 963+ E622 C3 95 81         jp clear_text_rect
 964+ E625
 965+ E625              ; ===============================================================
 966+ E625              ; ST_VERDICT — show what the player chose, compute score
 967+ E625              ; ===============================================================
 968+ E625              verdict_frame:
 969+ E625 3A CC EA         ld a, (screen_drawn)
 970+ E628 B7               or a
 971+ E629 C2 2E E7         jp nz, .vf_wait
 972+ E62C
 973+ E62C                  ; Determine correctness
 974+ E62C 2A DA EA         ld hl, (current_subj)
 975+ E62F 7E               ld a, (hl)          ; subject type
 976+ E630 47               ld b, a
 977+ E631 3A A5 E2         ld a, (player_verdict)
 978+ E634 B8               cp b
 979+ E635 28 10            jr z, .vf_correct
 980+ E637
 981+ E637                  ; Wrong
 982+ E637 AF               xor a
 983+ E638 32 55 E7         ld (level_score), a
 984+ E63B 3E 00            ld a, 0
 985+ E63D 32 56 E7         ld (verdict_correct), a
 986+ E640 3E 05            ld a, SFX_WRONG
 987+ E642 CD 02 86         call ay_play_sfx
 988+ E645 18 32            jr .vf_draw
 989+ E647
 990+ E647              .vf_correct:
 991+ E647 3E 01            ld a, 1
 992+ E649 32 56 E7         ld (verdict_correct), a
 993+ E64C                  ; Score = max(0, 100 - questions_asked * penalty)
 994+ E64C 3A D0 EA         ld a, (level_num)
 995+ E64F CD 34 92         call get_penalty    ; A = penalty per question
 996+ E652 47               ld b, a
 997+ E653 3A D3 EA         ld a, (questions_asked)
 998+ E656 B7               or a
 999+ E657 28 11            jr z, .vf_full_score
1000+ E659                  ; Multiply: questions_asked * penalty
1001+ E659 4F               ld c, a
1002+ E65A AF               xor a
1003+ E65B              .vf_mul:
1004+ E65B 80               add a, b
1005+ E65C 38 09            jr c, .vf_zero_score
1006+ E65E 0D               dec c
1007+ E65F 20 FA            jr nz, .vf_mul
1008+ E661                  ; A = total penalty
1009+ E661 47               ld b, a
1010+ E662 3E 64            ld a, BASE_SCORE
1011+ E664 90               sub b
1012+ E665 30 05            jr nc, .vf_got_score
1013+ E667              .vf_zero_score:
1014+ E667 AF               xor a
1015+ E668 18 02            jr .vf_got_score
1016+ E66A              .vf_full_score:
1017+ E66A 3E 64            ld a, BASE_SCORE
1018+ E66C              .vf_got_score:
1019+ E66C 32 55 E7         ld (level_score), a
1020+ E66F                  ; Add to total
1021+ E66F 5F               ld e, a
1022+ E670 16 00            ld d, 0
1023+ E672 2A D1 EA         ld hl, (total_score)
1024+ E675 19               add hl, de
1025+ E676 22 D1 EA         ld (total_score), hl
1026+ E679
1027+ E679              .vf_draw:
1028+ E679                  ; Draw verdict screen
1029+ E679 3A 56 E7         ld a, (verdict_correct)
1030+ E67C B7               or a
1031+ E67D 28 17            jr z, .vf_draw_wrong
1032+ E67F
1033+ E67F 3E 67            ld a, ATTR_CORRECT
1034+ E681 CD 96 80         call clear_screen_attrs
1035+ E684
1036+ E684 3E 0B            ld a, 11
1037+ E686 32 C3 80         ld (pr_col), a
1038+ E689 3E 04            ld a, 4
1039+ E68B 32 C4 80         ld (pr_row), a
1040+ E68E 21 50 C3         ld hl, str_correct
1041+ E691 CD FE 80         call print_str
1042+ E694 18 15            jr .vf_draw_score
1043+ E696
1044+ E696              .vf_draw_wrong:
1045+ E696 3E 57            ld a, ATTR_WRONG
1046+ E698 CD 96 80         call clear_screen_attrs
1047+ E69B
1048+ E69B 3E 0A            ld a, 10
1049+ E69D 32 C3 80         ld (pr_col), a
1050+ E6A0 3E 04            ld a, 4
1051+ E6A2 32 C4 80         ld (pr_row), a
1052+ E6A5 21 5B C3         ld hl, str_wrong
1053+ E6A8 CD FE 80         call print_str
1054+ E6AB
1055+ E6AB              .vf_draw_score:
1056+ E6AB                  ; Show what player said
1057+ E6AB 3A A5 E2         ld a, (player_verdict)
1058+ E6AE B7               or a
1059+ E6AF 20 12            jr nz, .vf_said_android
1060+ E6B1 3E 09            ld a, 9
1061+ E6B3 32 C3 80         ld (pr_col), a
1062+ E6B6 3E 08            ld a, 8
1063+ E6B8 32 C4 80         ld (pr_row), a
1064+ E6BB 21 76 C3         ld hl, str_human
1065+ E6BE CD FE 80         call print_str
1066+ E6C1 18 10            jr .vf_show_pts
1067+ E6C3              .vf_said_android:
1068+ E6C3 3E 09            ld a, 9
1069+ E6C5 32 C3 80         ld (pr_col), a
1070+ E6C8 3E 08            ld a, 8
1071+ E6CA 32 C4 80         ld (pr_row), a
1072+ E6CD 21 85 C3         ld hl, str_android
1073+ E6D0 CD FE 80         call print_str
1074+ E6D3
1075+ E6D3              .vf_show_pts:
1076+ E6D3                  ; Points awarded
1077+ E6D3 3E 0A            ld a, 10
1078+ E6D5 32 C3 80         ld (pr_col), a
1079+ E6D8 3E 0C            ld a, 12
1080+ E6DA 32 C4 80         ld (pr_row), a
1081+ E6DD 3A 55 E7         ld a, (level_score)
1082+ E6E0 CD 20 81         call print_num
1083+ E6E3 3A C3 80         ld a, (pr_col)
1084+ E6E6 3C               inc a
1085+ E6E7 32 C3 80         ld (pr_col), a
1086+ E6EA 21 69 C3         ld hl, str_awarded
1087+ E6ED CD FE 80         call print_str
1088+ E6F0
1089+ E6F0                  ; Total
1090+ E6F0 3E 0A            ld a, 10
1091+ E6F2 32 C3 80         ld (pr_col), a
1092+ E6F5 3E 0E            ld a, 14
1093+ E6F7 32 C4 80         ld (pr_row), a
1094+ E6FA 21 70 C3         ld hl, str_total
1095+ E6FD CD FE 80         call print_str
1096+ E700 3A C3 80         ld a, (pr_col)
1097+ E703 3C               inc a
1098+ E704 32 C3 80         ld (pr_col), a
1099+ E707 2A D1 EA         ld hl, (total_score)
1100+ E70A CD 45 81         call print_num16
1101+ E70D
1102+ E70D                  ; "PRESS KEY..."
1103+ E70D 3E 03            ld a, 3
1104+ E70F 32 C3 80         ld (pr_col), a
1105+ E712 3E 14            ld a, 20
1106+ E714 32 C4 80         ld (pr_row), a
1107+ E717 21 D5 C3         ld hl, str_next
1108+ E71A CD FE 80         call print_str
1109+ E71D
1110+ E71D                  ; Play beeper sample for correct verdict (screen is already visible)
1111+ E71D 3A 56 E7         ld a, (verdict_correct)
1112+ E720 B7               or a
1113+ E721 28 06            jr z, .vf_no_sample
1114+ E723 CD FC 86         call play_hell_yeah
1115+ E726 CD 9E 85         call ay_init_ambient
1116+ E729              .vf_no_sample:
1117+ E729
1118+ E729 3E 01            ld a, 1
1119+ E72B 32 CC EA         ld (screen_drawn), a
1120+ E72E
1121+ E72E              .vf_wait:
1122+ E72E CD 0D 83         call read_any_key
1123+ E731 B7               or a
1124+ E732 C8               ret z
1125+ E733                  ; Debounce: wait for release
1126+ E733 CD 0D 83         call read_any_key
1127+ E736 B7               or a
1128+ E737 20 F5            jr nz, .vf_wait
1129+ E739
1130+ E739 AF               xor a
1131+ E73A 32 CC EA         ld (screen_drawn), a
1132+ E73D                  ; Next level or gameover
1133+ E73D 3A D0 EA         ld a, (level_num)
1134+ E740 FE 05            cp NUM_LEVELS
1135+ E742 30 0A            jr nc, .vf_gameover
1136+ E744 3C               inc a
1137+ E745 32 D0 EA         ld (level_num), a
1138+ E748 3E 01            ld a, ST_LEVEL_INTRO
1139+ E74A 32 CB EA         ld (game_state), a
1140+ E74D C9               ret
1141+ E74E              .vf_gameover:
1142+ E74E 3E 05            ld a, ST_GAMEOVER
1143+ E750 32 CB EA         ld (game_state), a
1144+ E753 C9               ret
1145+ E754
1146+ E754 00           ask_class:       db 0
1147+ E755 00           level_score:     db 0
1148+ E756 00           verdict_correct: db 0
1149+ E757
1150+ E757              ; ===============================================================
1151+ E757              ; ST_GAMEOVER — final score screen, then check high score
1152+ E757              ; ===============================================================
1153+ E757              gameover_frame:
1154+ E757 3A CC EA         ld a, (screen_drawn)
1155+ E75A B7               or a
1156+ E75B C2 A8 E7         jp nz, .go_wait
1157+ E75E
1158+ E75E 3E 4F            ld a, INK_WHITE + (INK_BLUE*8) + BRIGHT
1159+ E760 CD 96 80         call clear_screen_attrs
1160+ E763
1161+ E763                  ; "GAME OVER"
1162+ E763 3E 0B            ld a, 11
1163+ E765 32 C3 80         ld (pr_col), a
1164+ E768 3E 05            ld a, 5
1165+ E76A 32 C4 80         ld (pr_row), a
1166+ E76D 21 A2 C3         ld hl, str_gameover
1167+ E770 CD FE 80         call print_str
1168+ E773
1169+ E773                  ; "FINAL SCORE"
1170+ E773 3E 0A            ld a, 10
1171+ E775 32 C3 80         ld (pr_col), a
1172+ E778 3E 0A            ld a, 10
1173+ E77A 32 C4 80         ld (pr_row), a
1174+ E77D 21 96 C3         ld hl, str_final
1175+ E780 CD FE 80         call print_str
1176+ E783
1177+ E783                  ; Score number
1178+ E783 3E 0E            ld a, 14
1179+ E785 32 C3 80         ld (pr_col), a
1180+ E788 3E 0D            ld a, 13
1181+ E78A 32 C4 80         ld (pr_row), a
1182+ E78D 2A D1 EA         ld hl, (total_score)
1183+ E790 CD 45 81         call print_num16
1184+ E793
1185+ E793                  ; "PRESS ANY KEY"
1186+ E793 3E 09            ld a, 9
1187+ E795 32 C3 80         ld (pr_col), a
1188+ E798 3E 14            ld a, 20
1189+ E79A 32 C4 80         ld (pr_row), a
1190+ E79D 21 F0 C3         ld hl, str_any_end
1191+ E7A0 CD FE 80         call print_str
1192+ E7A3
1193+ E7A3 3E 01            ld a, 1
1194+ E7A5 32 CC EA         ld (screen_drawn), a
1195+ E7A8
1196+ E7A8              .go_wait:
1197+ E7A8 CD 0D 83         call read_any_key
1198+ E7AB B7               or a
1199+ E7AC C8               ret z
1200+ E7AD
1201+ E7AD                  ; Check if qualifies for high score table
1202+ E7AD CD E9 E8         call check_hiscore
1203+ E7B0 3A CD EB         ld a, (hiscore_new_pos)
1204+ E7B3 FE FF            cp #FF
1205+ E7B5 28 12            jr z, .go_no_hiscore
1206+ E7B7
1207+ E7B7                  ; Qualified — go to hiscore entry mode
1208+ E7B7 AF               xor a
1209+ E7B8 32 CC EA         ld (screen_drawn), a
1210+ E7BB 32 CD EA         ld (key_held), a
1211+ E7BE 3E 06            ld a, ST_HISCORE
1212+ E7C0 32 CB EA         ld (game_state), a
1213+ E7C3 3E 01            ld a, 1
1214+ E7C5 32 DC E7         ld (hiscore_entry_mode), a
1215+ E7C8 C9               ret
1216+ E7C9
1217+ E7C9              .go_no_hiscore:
1218+ E7C9                  ; Show high score table (display mode) before returning to attract
1219+ E7C9 CD 35 84         call ay_mute
1220+ E7CC AF               xor a
1221+ E7CD 32 CC EA         ld (screen_drawn), a
1222+ E7D0 32 DC E7         ld (hiscore_entry_mode), a
1223+ E7D3 3E 06            ld a, ST_HISCORE
1224+ E7D5 32 CB EA         ld (game_state), a
1225+ E7D8 CD 52 84         call ay_init_title
1226+ E7DB C9               ret
1227+ E7DC
1228+ E7DC 00           hiscore_entry_mode: db 0
1229+ E7DD
# file closed: game.asm
  67  E7DD                  INCLUDE "hiscore.asm"
# file opened: hiscore.asm
   1+ E7DD              ; hiscore.asm — High score display, attract mode, and initial entry
   2+ E7DD
   3+ E7DD              ; ===============================================================
   4+ E7DD              ; ST_HISCORE frame handler
   5+ E7DD              ; Two modes: display (attract) or entry (after game over)
   6+ E7DD              ; ===============================================================
   7+ E7DD              hiscore_frame:
   8+ E7DD 3A DC E7         ld a, (hiscore_entry_mode)
   9+ E7E0 B7               or a
  10+ E7E1 C2 65 E9         jp nz, hiscore_entry_frame
  11+ E7E4
  12+ E7E4                  ; --- Display mode (attract) ---
  13+ E7E4 3A CC EA         ld a, (screen_drawn)
  14+ E7E7 B7               or a
  15+ E7E8 C2 F9 E7         jp nz, .hs_tick
  16+ E7EB
  17+ E7EB                  ; Draw the high score screen
  18+ E7EB CD 25 E8         call draw_hiscore_screen
  19+ E7EE 3E 01            ld a, 1
  20+ E7F0 32 CC EA         ld (screen_drawn), a
  21+ E7F3 21 00 00         ld hl, 0
  22+ E7F6 22 99 EB         ld (attract_timer), hl
  23+ E7F9
  24+ E7F9              .hs_tick:
  25+ E7F9 CD 9D 84         call ay_tick_music
  26+ E7FC
  27+ E7FC                  ; Increment attract timer
  28+ E7FC 2A 99 EB         ld hl, (attract_timer)
  29+ E7FF 23               inc hl
  30+ E800 22 99 EB         ld (attract_timer), hl
  31+ E803                  ; Check if 500 frames (10 seconds) elapsed
  32+ E803 7C               ld a, h
  33+ E804 FE 01            cp 1               ; 256+ frames
  34+ E806 38 0D            jr c, .hs_check_key
  35+ E808 7D               ld a, l
  36+ E809 FE F4            cp 244             ; 1*256+244 = 500
  37+ E80B 38 08            jr c, .hs_check_key
  38+ E80D                  ; Time's up: switch back to title
  39+ E80D AF               xor a
  40+ E80E 32 CC EA         ld (screen_drawn), a
  41+ E811 32 CB EA         ld (game_state), a  ; ST_TITLE = 0
  42+ E814 C9               ret
  43+ E815
  44+ E815              .hs_check_key:
  45+ E815 CD 0D 83         call read_any_key
  46+ E818 B7               or a
  47+ E819 C8               ret z
  48+ E81A                  ; Key pressed: start a new game
  49+ E81A CD 35 84         call ay_mute
  50+ E81D AF               xor a
  51+ E81E 32 CC EA         ld (screen_drawn), a
  52+ E821 CD A2 EA         call start_new_game
  53+ E824 C9               ret
  54+ E825
  55+ E825              ; ===============================================================
  56+ E825              ; Draw high score table screen
  57+ E825              ; ===============================================================
  58+ E825              draw_hiscore_screen:
  59+ E825 3E 05            ld a, INK_CYAN + (INK_BLACK*8)
  60+ E827 CD 96 80         call clear_screen_attrs
  61+ E82A
  62+ E82A                  ; Title "HIGH SCORES"
  63+ E82A 3E 0A            ld a, 10
  64+ E82C 32 C3 80         ld (pr_col), a
  65+ E82F 3E 02            ld a, 2
  66+ E831 32 C4 80         ld (pr_row), a
  67+ E834 21 FE C3         ld hl, str_hiscore_hd
  68+ E837 CD FE 80         call print_str
  69+ E83A 16 02            ld d, 2
  70+ E83C 06 0A            ld b, 10
  71+ E83E 1E 0B            ld e, 11
  72+ E840 3E 45            ld a, ATTR_TITLE
  73+ E842 CD 77 81         call set_row_attrs
  74+ E845
  75+ E845                  ; Column headers
  76+ E845 3E 04            ld a, 4
  77+ E847 32 C3 80         ld (pr_col), a
  78+ E84A 3E 04            ld a, 4
  79+ E84C 32 C4 80         ld (pr_row), a
  80+ E84F 21 0A C4         ld hl, str_rank
  81+ E852 CD FE 80         call print_str
  82+ E855 16 04            ld d, 4
  83+ E857 06 04            ld b, 4
  84+ E859 1E 18            ld e, 24
  85+ E85B 3E 46            ld a, ATTR_STATUS
  86+ E85D CD 77 81         call set_row_attrs
  87+ E860
  88+ E860                  ; Draw 10 entries
  89+ E860 0E 00            ld c, 0             ; entry index
  90+ E862              .dhs_loop:
  91+ E862 79               ld a, c
  92+ E863 FE 0A            cp HISCORE_ENTRIES
  93+ E865 D0               ret nc
  94+ E866 C5               push bc
  95+ E867
  96+ E867                  ; Row = 6 + index
  97+ E867 79               ld a, c
  98+ E868 C6 06            add a, 6
  99+ E86A 32 C4 80         ld (pr_row), a
 100+ E86D 32 E7 E8         ld (dhs_row), a
 101+ E870
 102+ E870                  ; Print rank: index + 1
 103+ E870 3E 05            ld a, 5
 104+ E872 32 C3 80         ld (pr_col), a
 105+ E875 C1               pop bc
 106+ E876 C5               push bc
 107+ E877 79               ld a, c
 108+ E878 3C               inc a
 109+ E879 CD 20 81         call print_num
 110+ E87C                  ; Print "."
 111+ E87C 3A C3 80         ld a, (pr_col)
 112+ E87F 32 C3 80         ld (pr_col), a
 113+ E882 21 52 C4         ld hl, str_dot
 114+ E885 CD FE 80         call print_str
 115+ E888
 116+ E888                  ; Get entry pointer: hiscore_table + index * 5
 117+ E888 C1               pop bc
 118+ E889 C5               push bc
 119+ E88A 79               ld a, c
 120+ E88B 6F               ld l, a
 121+ E88C 26 00            ld h, 0
 122+ E88E 29               add hl, hl
 123+ E88F 29               add hl, hl
 124+ E890 29               add hl, hl          ; *8... no, need *5
 125+ E891                  ; Redo: HL = c * 5
 126+ E891 C1               pop bc
 127+ E892 C5               push bc
 128+ E893 79               ld a, c
 129+ E894 6F               ld l, a
 130+ E895 26 00            ld h, 0
 131+ E897 54               ld d, h
 132+ E898 5D               ld e, l
 133+ E899 29               add hl, hl
 134+ E89A 29               add hl, hl
 135+ E89B 19               add hl, de           ; HL = c * 5
 136+ E89C 11 9B EB         ld de, hiscore_table
 137+ E89F 19               add hl, de           ; HL = entry pointer
 138+ E8A0
 139+ E8A0                  ; Print 3-char initials
 140+ E8A0 3E 0A            ld a, 10
 141+ E8A2 32 C3 80         ld (pr_col), a
 142+ E8A5 E5               push hl
 143+ E8A6 7E               ld a, (hl)
 144+ E8A7 4F               ld c, a
 145+ E8A8 CD C5 80         call print_char
 146+ E8AB 21 C3 80         ld hl, pr_col
 147+ E8AE 34               inc (hl)
 148+ E8AF E1               pop hl
 149+ E8B0 23               inc hl
 150+ E8B1 E5               push hl
 151+ E8B2 7E               ld a, (hl)
 152+ E8B3 4F               ld c, a
 153+ E8B4 CD C5 80         call print_char
 154+ E8B7 21 C3 80         ld hl, pr_col
 155+ E8BA 34               inc (hl)
 156+ E8BB E1               pop hl
 157+ E8BC 23               inc hl
 158+ E8BD E5               push hl
 159+ E8BE 7E               ld a, (hl)
 160+ E8BF 4F               ld c, a
 161+ E8C0 CD C5 80         call print_char
 162+ E8C3 21 C3 80         ld hl, pr_col
 163+ E8C6 34               inc (hl)
 164+ E8C7 E1               pop hl
 165+ E8C8 23               inc hl
 166+ E8C9
 167+ E8C9                  ; Print score (16-bit LE)
 168+ E8C9 3E 11            ld a, 17
 169+ E8CB 32 C3 80         ld (pr_col), a
 170+ E8CE 5E               ld e, (hl)
 171+ E8CF 23               inc hl
 172+ E8D0 56               ld d, (hl)
 173+ E8D1 EB               ex de, hl            ; HL = score
 174+ E8D2 CD 45 81         call print_num16
 175+ E8D5
 176+ E8D5                  ; Set row attrs
 177+ E8D5 3A E7 E8         ld a, (dhs_row)
 178+ E8D8 57               ld d, a
 179+ E8D9 06 04            ld b, 4
 180+ E8DB 1E 18            ld e, 24
 181+ E8DD 3E 45            ld a, ATTR_HISCORE
 182+ E8DF CD 77 81         call set_row_attrs
 183+ E8E2
 184+ E8E2 C1               pop bc
 185+ E8E3 0C               inc c
 186+ E8E4 C3 62 E8         jp .dhs_loop
 187+ E8E7
 188+ E8E7 00           dhs_row: db 0
 189+ E8E8 00           hef_keys_released: db 0
 190+ E8E9
 191+ E8E9              ; ===============================================================
 192+ E8E9              ; Check if total_score qualifies for high score table
 193+ E8E9              ; Sets hiscore_new_pos to position (0-9) or #FF if doesn't qualify
 194+ E8E9              ; ===============================================================
 195+ E8E9              check_hiscore:
 196+ E8E9 0E 00            ld c, 0             ; index
 197+ E8EB DD 21 9B EB      ld ix, hiscore_table
 198+ E8EF              .chs_loop:
 199+ E8EF 79               ld a, c
 200+ E8F0 FE 0A            cp HISCORE_ENTRIES
 201+ E8F2 30 1D            jr nc, .chs_no
 202+ E8F4                  ; Get score at this position (offset 3-4 in entry)
 203+ E8F4 DD 6E 03         ld l, (ix+3)
 204+ E8F7 DD 66 04         ld h, (ix+4)
 205+ E8FA                  ; Compare total_score > entry score
 206+ E8FA ED 5B D1 EA      ld de, (total_score)
 207+ E8FE                  ; If DE > HL, we qualify at this position
 208+ E8FE                  ; Compare: DE - HL
 209+ E8FE 7B               ld a, e
 210+ E8FF 95               sub l
 211+ E900 7A               ld a, d
 212+ E901 9C               sbc a, h
 213+ E902 38 05            jr c, .chs_next      ; total_score < entry, try next
 214+ E904                  ; total_score >= entry score: qualify here
 215+ E904 79               ld a, c
 216+ E905 32 CD EB         ld (hiscore_new_pos), a
 217+ E908 C9               ret
 218+ E909              .chs_next:
 219+ E909 11 05 00         ld de, HISCORE_ENTRY_SZ
 220+ E90C DD 19            add ix, de
 221+ E90E 0C               inc c
 222+ E90F 18 DE            jr .chs_loop
 223+ E911              .chs_no:
 224+ E911 3E FF            ld a, #FF
 225+ E913 32 CD EB         ld (hiscore_new_pos), a
 226+ E916 C9               ret
 227+ E917
 228+ E917              ; ===============================================================
 229+ E917              ; Insert new high score at hiscore_new_pos
 230+ E917              ; Shifts entries down, writes initials and score
 231+ E917              ; ===============================================================
 232+ E917              insert_hiscore:
 233+ E917                  ; Shift entries 8 down to 9, 7 down to 8, etc. from pos to 8
 234+ E917 3A CD EB         ld a, (hiscore_new_pos)
 235+ E91A 4F               ld c, a
 236+ E91B                  ; Start from entry 8, copy to entry 9, working backwards to pos
 237+ E91B 06 09            ld b, HISCORE_ENTRIES - 1
 238+ E91D              .ihs_shift:
 239+ E91D 78               ld a, b
 240+ E91E B9               cp c
 241+ E91F 38 18            jr c, .ihs_shift_done
 242+ E921                  ; Copy entry B to entry B+1
 243+ E921 C5               push bc
 244+ E922                  ; Source = hiscore_table + B * 5
 245+ E922 78               ld a, b
 246+ E923 CD 58 E9         call get_hiscore_entry_ptr
 247+ E926                  ; HL = source
 248+ E926 E5               push hl
 249+ E927 D1               pop de               ; DE = source
 250+ E928                  ; Dest = hiscore_table + (B+1) * 5
 251+ E928 C1               pop bc
 252+ E929 C5               push bc
 253+ E92A 78               ld a, b
 254+ E92B 3C               inc a
 255+ E92C CD 58 E9         call get_hiscore_entry_ptr
 256+ E92F                  ; HL = dest
 257+ E92F EB               ex de, hl            ; DE = dest, HL = source
 258+ E930 01 05 00         ld bc, HISCORE_ENTRY_SZ
 259+ E933 ED B0            ldir
 260+ E935 C1               pop bc
 261+ E936 05               dec b
 262+ E937 18 E4            jr .ihs_shift
 263+ E939
 264+ E939              .ihs_shift_done:
 265+ E939                  ; Write new entry at position
 266+ E939 3A CD EB         ld a, (hiscore_new_pos)
 267+ E93C CD 58 E9         call get_hiscore_entry_ptr
 268+ E93F                  ; HL = entry pointer
 269+ E93F                  ; Write initials
 270+ E93F 3A CE EB         ld a, (hiscore_initials)
 271+ E942 77               ld (hl), a
 272+ E943 23               inc hl
 273+ E944 3A CF EB         ld a, (hiscore_initials+1)
 274+ E947 77               ld (hl), a
 275+ E948 23               inc hl
 276+ E949 3A D0 EB         ld a, (hiscore_initials+2)
 277+ E94C 77               ld (hl), a
 278+ E94D 23               inc hl
 279+ E94E                  ; Write score (16-bit LE)
 280+ E94E 3A D1 EA         ld a, (total_score)
 281+ E951 77               ld (hl), a
 282+ E952 23               inc hl
 283+ E953 3A D2 EA         ld a, (total_score+1)
 284+ E956 77               ld (hl), a
 285+ E957 C9               ret
 286+ E958
 287+ E958              ; Helper: A = entry index, returns HL = pointer to that entry
 288+ E958              get_hiscore_entry_ptr:
 289+ E958 6F               ld l, a
 290+ E959 26 00            ld h, 0
 291+ E95B 54               ld d, h
 292+ E95C 5D               ld e, l
 293+ E95D 29               add hl, hl
 294+ E95E 29               add hl, hl
 295+ E95F 19               add hl, de           ; HL = index * 5
 296+ E960 11 9B EB         ld de, hiscore_table
 297+ E963 19               add hl, de
 298+ E964 C9               ret
 299+ E965
 300+ E965              ; ===============================================================
 301+ E965              ; High score entry mode: type 3 initials directly from keyboard
 302+ E965              ; ===============================================================
 303+ E965              hiscore_entry_frame:
 304+ E965 3A CC EA         ld a, (screen_drawn)
 305+ E968 B7               or a
 306+ E969 C2 CD E9         jp nz, .hef_input
 307+ E96C
 308+ E96C                  ; Draw entry screen
 309+ E96C 3E 4F            ld a, INK_WHITE + (INK_BLUE*8) + BRIGHT
 310+ E96E CD 96 80         call clear_screen_attrs
 311+ E971
 312+ E971 3E 08            ld a, 8
 313+ E973 32 C3 80         ld (pr_col), a
 314+ E976 3E 04            ld a, 4
 315+ E978 32 C4 80         ld (pr_row), a
 316+ E97B 21 42 C4         ld hl, str_new_hi
 317+ E97E CD FE 80         call print_str
 318+ E981
 319+ E981                  ; Show score
 320+ E981 3E 0C            ld a, 12
 321+ E983 32 C3 80         ld (pr_col), a
 322+ E986 3E 07            ld a, 7
 323+ E988 32 C4 80         ld (pr_row), a
 324+ E98B 2A D1 EA         ld hl, (total_score)
 325+ E98E CD 45 81         call print_num16
 326+ E991
 327+ E991                  ; "TYPE YOUR INITIALS"
 328+ E991 3E 07            ld a, 7
 329+ E993 32 C3 80         ld (pr_col), a
 330+ E996 3E 0B            ld a, 11
 331+ E998 32 C4 80         ld (pr_row), a
 332+ E99B 21 1C C4         ld hl, str_enter_init
 333+ E99E CD FE 80         call print_str
 334+ E9A1
 335+ E9A1                  ; "ENTER=OK  0=DELETE"
 336+ E9A1 3E 07            ld a, 7
 337+ E9A3 32 C3 80         ld (pr_col), a
 338+ E9A6 3E 12            ld a, 18
 339+ E9A8 32 C4 80         ld (pr_row), a
 340+ E9AB 21 2F C4         ld hl, str_hef_help
 341+ E9AE CD FE 80         call print_str
 342+ E9B1
 343+ E9B1                  ; Init: 3 dots as placeholders
 344+ E9B1 AF               xor a
 345+ E9B2 32 D1 EB         ld (hiscore_cursor), a
 346+ E9B5 3E 2E            ld a, '.'
 347+ E9B7 32 CE EB         ld (hiscore_initials), a
 348+ E9BA 32 CF EB         ld (hiscore_initials+1), a
 349+ E9BD 32 D0 EB         ld (hiscore_initials+2), a
 350+ E9C0
 351+ E9C0 CD 5B EA         call draw_initial_entry
 352+ E9C3
 353+ E9C3 3E 01            ld a, 1
 354+ E9C5 32 CC EA         ld (screen_drawn), a
 355+ E9C8 AF               xor a
 356+ E9C9 32 E8 E8         ld (hef_keys_released), a
 357+ E9CC C9               ret
 358+ E9CD
 359+ E9CD              .hef_input:
 360+ E9CD                  ; Wait for keys from previous screen to be released
 361+ E9CD 3A E8 E8         ld a, (hef_keys_released)
 362+ E9D0 B7               or a
 363+ E9D1 20 0F            jr nz, .hef_do_input
 364+ E9D3
 365+ E9D3 CD 0D 83         call read_any_key
 366+ E9D6 B7               or a
 367+ E9D7 C0               ret nz
 368+ E9D8 3E 01            ld a, 1
 369+ E9DA 32 E8 E8         ld (hef_keys_released), a
 370+ E9DD AF               xor a
 371+ E9DE 32 25 84         ld (letter_held), a
 372+ E9E1 C9               ret
 373+ E9E2
 374+ E9E2              .hef_do_input:
 375+ E9E2 CD 2B 83         call scan_letter
 376+ E9E5 B7               or a
 377+ E9E6 C8               ret z
 378+ E9E7
 379+ E9E7 FE 01            cp 1                  ; ENTER = confirm
 380+ E9E9 CA 37 EA         jp z, .hef_confirm
 381+ E9EC
 382+ E9EC FE 02            cp 2                  ; 0 key = delete last
 383+ E9EE 28 27            jr z, .hef_delete
 384+ E9F0
 385+ E9F0                  ; A-Z letter: store at cursor position and advance
 386+ E9F0 47               ld b, a
 387+ E9F1 3A D1 EB         ld a, (hiscore_cursor)
 388+ E9F4 FE 03            cp 3
 389+ E9F6 D0               ret nc                ; already have 3 letters
 390+ E9F7 5F               ld e, a
 391+ E9F8 16 00            ld d, 0
 392+ E9FA 21 CE EB         ld hl, hiscore_initials
 393+ E9FD 19               add hl, de
 394+ E9FE 70               ld (hl), b
 395+ E9FF
 396+ E9FF                  ; Advance cursor
 397+ E9FF 3A D1 EB         ld a, (hiscore_cursor)
 398+ EA02 3C               inc a
 399+ EA03 32 D1 EB         ld (hiscore_cursor), a
 400+ EA06
 401+ EA06 3E 01            ld a, SFX_CLICK
 402+ EA08 CD 02 86         call ay_play_sfx
 403+ EA0B CD 5B EA         call draw_initial_entry
 404+ EA0E
 405+ EA0E                  ; Auto-confirm after 3rd letter
 406+ EA0E 3A D1 EB         ld a, (hiscore_cursor)
 407+ EA11 FE 03            cp 3
 408+ EA13 CA 32 EA         jp z, .hef_auto_confirm
 409+ EA16 C9               ret
 410+ EA17
 411+ EA17              .hef_delete:
 412+ EA17 3A D1 EB         ld a, (hiscore_cursor)
 413+ EA1A B7               or a
 414+ EA1B C8               ret z                 ; nothing to delete
 415+ EA1C 3D               dec a
 416+ EA1D 32 D1 EB         ld (hiscore_cursor), a
 417+ EA20 5F               ld e, a
 418+ EA21 16 00            ld d, 0
 419+ EA23 21 CE EB         ld hl, hiscore_initials
 420+ EA26 19               add hl, de
 421+ EA27 36 2E            ld (hl), '.'
 422+ EA29
 423+ EA29 3E 01            ld a, SFX_CLICK
 424+ EA2B CD 02 86         call ay_play_sfx
 425+ EA2E CD 5B EA         call draw_initial_entry
 426+ EA31 C9               ret
 427+ EA32
 428+ EA32              .hef_auto_confirm:
 429+ EA32                  ; Brief pause so the player sees the 3rd letter
 430+ EA32 06 0F            ld b, 15
 431+ EA34              .hef_pause:
 432+ EA34 76               halt
 433+ EA35 10 FD            djnz .hef_pause
 434+ EA37
 435+ EA37              .hef_confirm:
 436+ EA37                  ; Replace any remaining dots with spaces
 437+ EA37 21 CE EB         ld hl, hiscore_initials
 438+ EA3A 06 03            ld b, 3
 439+ EA3C              .hef_fill:
 440+ EA3C 7E               ld a, (hl)
 441+ EA3D FE 2E            cp '.'
 442+ EA3F 20 02            jr nz, .hef_fill_ok
 443+ EA41 36 20            ld (hl), ' '
 444+ EA43              .hef_fill_ok:
 445+ EA43 23               inc hl
 446+ EA44 10 F6            djnz .hef_fill
 447+ EA46
 448+ EA46 3E 02            ld a, SFX_CHIRP
 449+ EA48 CD 02 86         call ay_play_sfx
 450+ EA4B CD 17 E9         call insert_hiscore
 451+ EA4E AF               xor a
 452+ EA4F 32 CC EA         ld (screen_drawn), a
 453+ EA52 32 DC E7         ld (hiscore_entry_mode), a
 454+ EA55 3E 06            ld a, ST_HISCORE
 455+ EA57 32 CB EA         ld (game_state), a
 456+ EA5A C9               ret
 457+ EA5B
 458+ EA5B              ; Draw the 3 initials with highlighted cursor position
 459+ EA5B              draw_initial_entry:
 460+ EA5B 3E 0E            ld a, 14
 461+ EA5D 32 C3 80         ld (pr_col), a
 462+ EA60 3E 0E            ld a, 14
 463+ EA62 32 C4 80         ld (pr_row), a
 464+ EA65
 465+ EA65 3A CE EB         ld a, (hiscore_initials)
 466+ EA68 4F               ld c, a
 467+ EA69 CD C5 80         call print_char
 468+ EA6C 21 C3 80         ld hl, pr_col
 469+ EA6F 34               inc (hl)
 470+ EA70 34               inc (hl)
 471+ EA71 3A CF EB         ld a, (hiscore_initials+1)
 472+ EA74 4F               ld c, a
 473+ EA75 CD C5 80         call print_char
 474+ EA78 21 C3 80         ld hl, pr_col
 475+ EA7B 34               inc (hl)
 476+ EA7C 34               inc (hl)
 477+ EA7D 3A D0 EB         ld a, (hiscore_initials+2)
 478+ EA80 4F               ld c, a
 479+ EA81 CD C5 80         call print_char
 480+ EA84
 481+ EA84                  ; Set row attrs — all normal
 482+ EA84 16 0E            ld d, 14
 483+ EA86 06 0E            ld b, 14
 484+ EA88 1E 07            ld e, 7
 485+ EA8A 3E 45            ld a, ATTR_HISCORE
 486+ EA8C CD 77 81         call set_row_attrs
 487+ EA8F
 488+ EA8F                  ; Highlight cursor position (if < 3)
 489+ EA8F 3A D1 EB         ld a, (hiscore_cursor)
 490+ EA92 FE 03            cp 3
 491+ EA94 D0               ret nc                ; all filled, no cursor
 492+ EA95 87               add a, a              ; *2 for spacing
 493+ EA96 C6 0E            add a, 14             ; base col
 494+ EA98 47               ld b, a
 495+ EA99 16 0E            ld d, 14
 496+ EA9B 1E 01            ld e, 1
 497+ EA9D 3E 4F            ld a, ATTR_HISCORE_HL
 498+ EA9F C3 77 81         jp set_row_attrs
 499+ EAA2
 500+ EAA2              ; ===============================================================
 501+ EAA2              ; Start a new game — shared between title and hiscore screens
 502+ EAA2              ; ===============================================================
 503+ EAA2              start_new_game:
 504+ EAA2                  ; Seed RNG from refresh register
 505+ EAA2 ED 5F            ld a, r
 506+ EAA4 6F               ld l, a
 507+ EAA5 ED 5F            ld a, r
 508+ EAA7 67               ld h, a
 509+ EAA8 7C               ld a, h
 510+ EAA9 B5               or l
 511+ EAAA 20 03            jr nz, .sng_seed_ok
 512+ EAAC 21 5A A5         ld hl, #A55A
 513+ EAAF              .sng_seed_ok:
 514+ EAAF 22 CE EA         ld (rng_seed), hl
 515+ EAB2
 516+ EAB2                  ; Initialize active subjects for this playthrough
 517+ EAB2 CD D7 91         call init_active_subjects
 518+ EAB5
 519+ EAB5 3E 01            ld a, 1
 520+ EAB7 32 D0 EA         ld (level_num), a
 521+ EABA 21 00 00         ld hl, 0
 522+ EABD 22 D1 EA         ld (total_score), hl
 523+ EAC0 AF               xor a
 524+ EAC1 32 CC EA         ld (screen_drawn), a
 525+ EAC4 3E 01            ld a, ST_LEVEL_INTRO
 526+ EAC6 32 CB EA         ld (game_state), a
 527+ EAC9 C9               ret
 528+ EACA
# file closed: hiscore.asm
  68  EACA
  69  EACA                  ; ---- Global variables ----
  70  EACA 00           paging_ok:       DB 0
  71  EACB 00           game_state:      DB 0
  72  EACC 00           screen_drawn:    DB 0
  73  EACD 00           key_held:        DB 0
  74  EACE 5A A5        rng_seed:        DW #A55A
  75  EAD0
  76  EAD0 01           level_num:       DB 1
  77  EAD1 00 00        total_score:     DW 0
  78  EAD3 00           questions_asked: DB 0
  79  EAD4 00           cursor_x:        DB 0
  80  EAD5 00           cursor_y:        DB 0
  81  EAD6 00           query_count:     DB 0
  82  EAD7 FF FF FF     query_icons:     DB ICON_NONE, ICON_NONE, ICON_NONE
  83  EADA 00 00        current_subj:    DW 0
  84  EADC
  85  EADC              ; Voight-Kampff gauge state
  86  EADC 00           pupil_gauge:     DB 0
  87  EADD 00           flush_gauge:     DB 0
  88  EADE 00 00 00     prev_pupil:      DB 0, 0, 0
  89  EAE1 00 00 00     prev_flush:      DB 0, 0, 0
  90  EAE4 00           q_weight:        DB 0
  91  EAE5 00           pattern_flag:    DB 0
  92  EAE6 00           blink_timer:     DB 0
  93  EAE7
  94  EAE7              ; Active subjects for this playthrough (5 x SUBJ_SIZE)
  95  EAE7 00 00 00...  active_subjects: DS NUM_LEVELS * SUBJ_SIZE
  96  EB19
  97  EB19              ; Response assembly buffer (128 bytes)
  98  EB19 00 00 00...  response_buffer: DS 128
  99  EB99
 100  EB99              ; Attract mode
 101  EB99 00 00        attract_timer:   DW 0
 102  EB9B
 103  EB9B              ; High score table (10 entries: 3 chars initials + 2 bytes score = 5 bytes each)
 104  EB9B              hiscore_table:
 105  EB9B 41 41 41         DB "AAA"
 106  EB9E 32 00            DW 50
 107  EBA0 42 42 42         DB "BBB"
 108  EBA3 2D 00            DW 45
 109  EBA5 43 43 43         DB "CCC"
 110  EBA8 28 00            DW 40
 111  EBAA 44 44 44         DB "DDD"
 112  EBAD 23 00            DW 35
 113  EBAF 45 45 45         DB "EEE"
 114  EBB2 1E 00            DW 30
 115  EBB4 46 46 46         DB "FFF"
 116  EBB7 19 00            DW 25
 117  EBB9 47 47 47         DB "GGG"
 118  EBBC 14 00            DW 20
 119  EBBE 48 48 48         DB "HHH"
 120  EBC1 0F 00            DW 15
 121  EBC3 49 49 49         DB "III"
 122  EBC6 0A 00            DW 10
 123  EBC8 4A 4A 4A         DB "JJJ"
 124  EBCB 05 00            DW 5
 125  EBCD
 126  EBCD              ; Temp for hiscore entry
 127  EBCD FF           hiscore_new_pos: DB #FF
 128  EBCE 41 41 41     hiscore_initials: DB "AAA"
 129  EBD1 00           hiscore_cursor:  DB 0
 130  EBD2
 131  EBD2              GameCodeEnd:
 132  EBD2                  INCLUDE "loader_basic.inc"
# file opened: loader_basic.inc
   1+ EBD2              ; Auto-generated by tools/gen_loader.py — do not edit
   2+ EBD2              LoaderBasic:
   3+ EBD2 00 0A 0D 00      DB #00, #0a, #0d, #00, #fd, #33, #32, #37, #36, #37, #0e, #00, #00, #ff, #7f, #00
   3+ EBD6 FD 33 32 37
   3+ EBDA 36 37 0E 00
   3+ EBDE 00 FF 7F 00
   4+ EBE2 0D 00 14 05      DB #0d, #00, #14, #05, #00, #ef, #22, #22, #af, #0d, #00, #1e, #0f, #00, #f9, #20
   4+ EBE6 00 EF 22 22
   4+ EBEA AF 0D 00 1E
   4+ EBEE 0F 00 F9 20
   5+ EBF2 C0 33 32 37      DB #c0, #33, #32, #37, #36, #38, #0e, #00, #00, #00, #80, #00, #0d
   5+ EBF6 36 38 0E 00
   5+ EBFA 00 00 80 00
   5+ EBFE 0D
   6+ EBFF              LoaderBasicEnd:
   7+ EBFF
# file closed: loader_basic.inc
 133  EBFF              LoaderBasicLen EQU LoaderBasicEnd - LoaderBasic
 134  EBFF
nexus.asm(135): warning: [SAVESNA] Start address was also defined by END, SAVESNA argument used instead
 135  EBFF                  SAVESNA "nexus.sna", Entry
 136  EBFF                  EMPTYTAP "nexus.tap"
 137  EBFF                  SAVETAP "nexus.tap", BASIC, "nexus", LoaderBasic, LoaderBasicLen, 10
 138  EBFF                  SAVETAP "nexus.tap", CODE, "nexus", Entry, GameCodeEnd - Entry, #8000
 139  EBFF                  END Entry
# file closed: nexus.asm
